ARM GAS  /var/folders/0b/rh7d8qts4ys3rdpl8xd_0jkm0000gn/T//ccr6auIp.s 			page 1


   1              		.cpu cortex-m4
   2              		.eabi_attribute 27, 1
   3              		.eabi_attribute 28, 1
   4              		.eabi_attribute 20, 1
   5              		.eabi_attribute 21, 1
   6              		.eabi_attribute 23, 3
   7              		.eabi_attribute 24, 1
   8              		.eabi_attribute 25, 1
   9              		.eabi_attribute 26, 1
  10              		.eabi_attribute 30, 2
  11              		.eabi_attribute 34, 1
  12              		.eabi_attribute 18, 4
  13              		.file	"main.c"
  14              		.text
  15              	.Ltext0:
  16              		.cfi_sections	.debug_frame
  17              		.section	.text.ThdBodyLed,"ax",%progbits
  18              		.align	1
  19              		.p2align 4,,15
  20              		.syntax unified
  21              		.thumb
  22              		.thumb_func
  23              		.fpu fpv4-sp-d16
  24              		.type	ThdBodyLed, %function
  25              	ThdBodyLed:
  26              	.LFB261:
  27              		.file 1 "main.c"
  28              		.loc 1 82 0
  29              		.cfi_startproc
  30              		@ Volatile: function does not return.
  31              		@ args = 0, pretend = 0, frame = 0
  32              		@ frame_needed = 0, uses_anonymous_args = 0
  33              	.LVL0:
  34 0000 08B5     		push	{r3, lr}
  35              		.cfi_def_cfa_offset 8
  36              		.cfi_offset 3, -8
  37              		.cfi_offset 14, -4
  38              	.LBB42:
  39              	.LBB43:
  40              		.file 2 "../../lib/ChibiOS/os/rt/include/chregistry.h"
  41              		.loc 2 135 0
  42 0002 074B     		ldr	r3, .L5
  43 0004 074A     		ldr	r2, .L5+4
  44 0006 9B69     		ldr	r3, [r3, #24]
  45              	.LBE43:
  46              	.LBE42:
  47              		.loc 1 88 0
  48 0008 074C     		ldr	r4, .L5+8
  49              	.LBB45:
  50              	.LBB44:
  51              		.loc 2 135 0
  52 000a 9A61     		str	r2, [r3, #24]
  53              	.LVL1:
  54              	.L2:
  55              	.LBE44:
  56              	.LBE45:
  57              		.loc 1 88 0 discriminator 1
ARM GAS  /var/folders/0b/rh7d8qts4ys3rdpl8xd_0jkm0000gn/T//ccr6auIp.s 			page 2


  58 000c 6369     		ldr	r3, [r4, #20]
  59 000e 83F00403 		eor	r3, r3, #4
  60 0012 6361     		str	r3, [r4, #20]
  61              		.loc 1 93 0 discriminator 1
  62 0014 4FF4FA70 		mov	r0, #500
  63 0018 FFF7FEFF 		bl	chThdSleep
  64              	.LVL2:
  65 001c F6E7     		b	.L2
  66              	.L6:
  67 001e 00BF     		.align	2
  68              	.L5:
  69 0020 00000000 		.word	ch
  70 0024 00000000 		.word	.LANCHOR0
  71 0028 00040240 		.word	1073873920
  72              		.cfi_endproc
  73              	.LFE261:
  74              		.size	ThdBodyLed, .-ThdBodyLed
  75              		.section	.text.chprintf.constprop.0,"ax",%progbits
  76              		.align	1
  77              		.p2align 4,,15
  78              		.syntax unified
  79              		.thumb
  80              		.thumb_func
  81              		.fpu fpv4-sp-d16
  82              		.type	chprintf.constprop.0, %function
  83              	chprintf.constprop.0:
  84              	.LFB264:
  85              		.file 3 "../../lib/ChibiOS/os/hal/lib/streams/chprintf.h"
  86              		.loc 3 69 0
  87              		.cfi_startproc
  88              		@ args = 4, pretend = 12, frame = 8
  89              		@ frame_needed = 0, uses_anonymous_args = 1
  90              	.LVL3:
  91 0000 0EB4     		push	{r1, r2, r3}
  92              		.cfi_def_cfa_offset 12
  93              		.cfi_offset 1, -12
  94              		.cfi_offset 2, -8
  95              		.cfi_offset 3, -4
  96 0002 00B5     		push	{lr}
  97              		.cfi_def_cfa_offset 16
  98              		.cfi_offset 14, -16
  99 0004 82B0     		sub	sp, sp, #8
 100              		.cfi_def_cfa_offset 24
 101              		.loc 3 69 0
 102 0006 03AA     		add	r2, sp, #12
 103              		.loc 3 74 0
 104 0008 0548     		ldr	r0, .L9
 105              	.LVL4:
 106              		.loc 3 69 0
 107 000a 52F8041B 		ldr	r1, [r2], #4
 108              		.loc 3 73 0
 109 000e 0192     		str	r2, [sp, #4]
 110              		.loc 3 74 0
 111 0010 FFF7FEFF 		bl	chvprintf
 112              	.LVL5:
 113              		.loc 3 78 0
 114 0014 02B0     		add	sp, sp, #8
ARM GAS  /var/folders/0b/rh7d8qts4ys3rdpl8xd_0jkm0000gn/T//ccr6auIp.s 			page 3


 115              		.cfi_def_cfa_offset 16
 116              		@ sp needed
 117 0016 5DF804EB 		ldr	lr, [sp], #4
 118              		.cfi_restore 14
 119              		.cfi_def_cfa_offset 12
 120 001a 03B0     		add	sp, sp, #12
 121              		.cfi_restore 3
 122              		.cfi_restore 2
 123              		.cfi_restore 1
 124              		.cfi_def_cfa_offset 0
 125 001c 7047     		bx	lr
 126              	.L10:
 127 001e 00BF     		.align	2
 128              	.L9:
 129 0020 00000000 		.word	SD3
 130              		.cfi_endproc
 131              	.LFE264:
 132              		.size	chprintf.constprop.0, .-chprintf.constprop.0
 133              		.section	.text.ThdFrontLed,"ax",%progbits
 134              		.align	1
 135              		.p2align 4,,15
 136              		.syntax unified
 137              		.thumb
 138              		.thumb_func
 139              		.fpu fpv4-sp-d16
 140              		.type	ThdFrontLed, %function
 141              	ThdFrontLed:
 142              	.LFB260:
 143              		.loc 1 67 0
 144              		.cfi_startproc
 145              		@ args = 0, pretend = 0, frame = 0
 146              		@ frame_needed = 0, uses_anonymous_args = 0
 147              	.LVL6:
 148 0000 2DE9F041 		push	{r4, r5, r6, r7, r8, lr}
 149              		.cfi_def_cfa_offset 24
 150              		.cfi_offset 4, -24
 151              		.cfi_offset 5, -20
 152              		.cfi_offset 6, -16
 153              		.cfi_offset 7, -12
 154              		.cfi_offset 8, -8
 155              		.cfi_offset 14, -4
 156              	.LBB62:
 157              	.LBB63:
 158              		.loc 2 135 0
 159 0004 154C     		ldr	r4, .L15
 160 0006 164A     		ldr	r2, .L15+4
 161 0008 A369     		ldr	r3, [r4, #24]
 162              	.LBE63:
 163              	.LBE62:
 164              	.LBB65:
 165              	.LBB66:
 166              	.LBB67:
 167              	.LBB68:
 168              		.file 4 "../../lib/ChibiOS/os/rt/include/chsys.h"
 169              		.loc 4 367 0
 170 000a DFF85C80 		ldr	r8, .L15+12
 171              	.LBE68:
ARM GAS  /var/folders/0b/rh7d8qts4ys3rdpl8xd_0jkm0000gn/T//ccr6auIp.s 			page 4


 172              	.LBE67:
 173              	.LBE66:
 174              	.LBE65:
 175              		.loc 1 76 0
 176 000e 154E     		ldr	r6, .L15+8
 177              	.LBB82:
 178              	.LBB64:
 179              		.loc 2 135 0
 180 0010 9A61     		str	r2, [r3, #24]
 181              	.LBE64:
 182              	.LBE82:
 183              	.LBB83:
 184              	.LBB81:
 185              	.LBB73:
 186              	.LBB74:
 187              	.LBB75:
 188              	.LBB76:
 189              	.LBB77:
 190              		.file 5 "../../lib/ChibiOS/os/ext/CMSIS/include/core_cmFunc.h"
 191              		.loc 5 546 0
 192 0012 2027     		movs	r7, #32
 193              	.LVL7:
 194              	.L13:
 195              		.loc 5 546 0 is_stmt 0 discriminator 1
 196              		.syntax unified
 197              	@ 546 "../../lib/ChibiOS/os/ext/CMSIS/include/core_cmFunc.h" 1
 198 0014 87F31188 		MSR basepri, r7
 199              	@ 0 "" 2
 200              	.LVL8:
 201              		.thumb
 202              		.syntax unified
 203              	.LBE77:
 204              	.LBE76:
 205              	.LBE75:
 206              		.loc 4 349 0 is_stmt 1 discriminator 1
 207 0018 FFF7FEFF 		bl	_stats_start_measure_crit_thd
 208              	.LVL9:
 209              		.loc 4 350 0 discriminator 1
 210 001c FFF7FEFF 		bl	_dbg_check_lock
 211              	.LVL10:
 212              	.LBE74:
 213              	.LBE73:
 214              	.LBB78:
 215              	.LBB79:
 216              		.file 6 "../../lib/ChibiOS/os/rt/include/chvt.h"
 217              		.loc 6 231 0 discriminator 1
 218 0020 A56A     		ldr	r5, [r4, #40]
 219              	.LBE79:
 220              	.LBE78:
 221              	.LBB80:
 222              	.LBB72:
 223              		.loc 4 360 0 discriminator 1
 224 0022 FFF7FEFF 		bl	_dbg_check_unlock
 225              	.LVL11:
 226              		.loc 4 361 0 discriminator 1
 227 0026 FFF7FEFF 		bl	_stats_stop_measure_crit_thd
 228              	.LVL12:
ARM GAS  /var/folders/0b/rh7d8qts4ys3rdpl8xd_0jkm0000gn/T//ccr6auIp.s 			page 5


 229              		.loc 4 367 0 discriminator 1
 230 002a 2368     		ldr	r3, [r4]
 231 002c A342     		cmp	r3, r4
 232 002e 07D0     		beq	.L12
 233              		.loc 4 367 0 is_stmt 0
 234 0030 A269     		ldr	r2, [r4, #24]
 235 0032 9B68     		ldr	r3, [r3, #8]
 236 0034 9268     		ldr	r2, [r2, #8]
 237 0036 9A42     		cmp	r2, r3
 238 0038 02D2     		bcs	.L12
 239 003a 4046     		mov	r0, r8
 240 003c FFF7FEFF 		bl	chSysHalt
 241              	.LVL13:
 242              	.L12:
 243              	.LBB69:
 244              	.LBB70:
 245              	.LBB71:
 246              		.loc 5 546 0 is_stmt 1
 247 0040 0023     		movs	r3, #0
 248              		.syntax unified
 249              	@ 546 "../../lib/ChibiOS/os/ext/CMSIS/include/core_cmFunc.h" 1
 250 0042 83F31188 		MSR basepri, r3
 251              	@ 0 "" 2
 252              	.LVL14:
 253              		.thumb
 254              		.syntax unified
 255              	.LBE71:
 256              	.LBE70:
 257              	.LBE69:
 258              	.LBE72:
 259              	.LBE80:
 260              	.LBE81:
 261              	.LBE83:
 262              		.loc 1 76 0
 263 0046 7369     		ldr	r3, [r6, #20]
 264 0048 83F48043 		eor	r3, r3, #16384
 265 004c 7361     		str	r3, [r6, #20]
 266              		.loc 1 77 0
 267 004e 05F10A01 		add	r1, r5, #10
 268 0052 2846     		mov	r0, r5
 269 0054 FFF7FEFF 		bl	chThdSleepUntilWindowed
 270              	.LVL15:
 271 0058 DCE7     		b	.L13
 272              	.L16:
 273 005a 00BF     		.align	2
 274              	.L15:
 275 005c 00000000 		.word	ch
 276 0060 00000000 		.word	.LANCHOR1
 277 0064 000C0240 		.word	1073875968
 278 0068 00000000 		.word	.LANCHOR2
 279              		.cfi_endproc
 280              	.LFE260:
 281              		.size	ThdFrontLed, .-ThdFrontLed
 282              		.section	.text.panic_handler,"ax",%progbits
 283              		.align	1
 284              		.p2align 4,,15
 285              		.global	panic_handler
ARM GAS  /var/folders/0b/rh7d8qts4ys3rdpl8xd_0jkm0000gn/T//ccr6auIp.s 			page 6


 286              		.syntax unified
 287              		.thumb
 288              		.thumb_func
 289              		.fpu fpv4-sp-d16
 290              		.type	panic_handler, %function
 291              	panic_handler:
 292              	.LFB257:
 293              		.loc 1 23 0
 294              		.cfi_startproc
 295              		@ Volatile: function does not return.
 296              		@ args = 0, pretend = 0, frame = 0
 297              		@ frame_needed = 0, uses_anonymous_args = 0
 298              		@ link register save eliminated.
 299              	.LVL16:
 300              		.loc 1 26 0
 301 0000 084B     		ldr	r3, .L19
 302              		.loc 1 31 0
 303 0002 094A     		ldr	r2, .L19+4
 304              		.loc 1 26 0
 305 0004 2020     		movs	r0, #32
 306              	.LVL17:
 307              		.loc 1 27 0
 308 0006 4021     		movs	r1, #64
 309              		.loc 1 26 0
 310 0008 5883     		strh	r0, [r3, #26]	@ movhi
 311              		.loc 1 28 0
 312 000a 4FF48065 		mov	r5, #1024
 313              		.loc 1 27 0
 314 000e 5983     		strh	r1, [r3, #26]	@ movhi
 315              		.loc 1 29 0
 316 0010 4FF40064 		mov	r4, #2048
 317              		.loc 1 30 0
 318 0014 4FF48040 		mov	r0, #16384
 319              		.loc 1 31 0
 320 0018 0421     		movs	r1, #4
 321              		.loc 1 28 0
 322 001a 5D83     		strh	r5, [r3, #26]	@ movhi
 323              		.loc 1 29 0
 324 001c 5C83     		strh	r4, [r3, #26]	@ movhi
 325              		.loc 1 30 0
 326 001e 5883     		strh	r0, [r3, #26]	@ movhi
 327              		.loc 1 31 0
 328 0020 5183     		strh	r1, [r2, #26]	@ movhi
 329              	.L18:
 330 0022 FEE7     		b	.L18
 331              	.L20:
 332              		.align	2
 333              	.L19:
 334 0024 000C0240 		.word	1073875968
 335 0028 00040240 		.word	1073873920
 336              		.cfi_endproc
 337              	.LFE257:
 338              		.size	panic_handler, .-panic_handler
 339              		.global	__aeabi_d2f
 340              		.global	__aeabi_f2d
 341              		.section	.text.show_gravity,"ax",%progbits
 342              		.align	1
ARM GAS  /var/folders/0b/rh7d8qts4ys3rdpl8xd_0jkm0000gn/T//ccr6auIp.s 			page 7


 343              		.p2align 4,,15
 344              		.global	show_gravity
 345              		.syntax unified
 346              		.thumb
 347              		.thumb_func
 348              		.fpu fpv4-sp-d16
 349              		.type	show_gravity, %function
 350              	show_gravity:
 351              	.LFB262:
 352              		.loc 1 117 0
 353              		.cfi_startproc
 354              		@ args = 0, pretend = 0, frame = 16
 355              		@ frame_needed = 0, uses_anonymous_args = 0
 356              	.LVL18:
 357 0000 30B5     		push	{r4, r5, lr}
 358              		.cfi_def_cfa_offset 12
 359              		.cfi_offset 4, -12
 360              		.cfi_offset 5, -8
 361              		.cfi_offset 14, -4
 362 0002 2DED028B 		vpush.64	{d8}
 363              		.cfi_def_cfa_offset 20
 364              		.cfi_offset 80, -20
 365              		.cfi_offset 81, -16
 366              		.loc 1 135 0
 367 0006 90ED007A 		vldr.32	s14, [r0]
 368 000a DFED777A 		vldr.32	s15, .L60
 369              		.loc 1 117 0
 370 000e 85B0     		sub	sp, sp, #20
 371              		.cfi_def_cfa_offset 40
 372              		.loc 1 135 0
 373 0010 B4EEE77A 		vcmpe.f32	s14, s15
 374              		.loc 1 128 0
 375 0014 0023     		movs	r3, #0
 376              		.loc 1 135 0
 377 0016 F1EE10FA 		vmrs	APSR_nzcv, FPSCR
 378              		.loc 1 117 0
 379 001a 0446     		mov	r4, r0
 380              	.LVL19:
 381              		.loc 1 128 0
 382 001c ADF80E30 		strh	r3, [sp, #14]	@ movhi
 383              		.loc 1 135 0
 384 0020 1FDC     		bgt	.L22
 385              		.loc 1 135 0 is_stmt 0 discriminator 2
 386 0022 90ED017A 		vldr.32	s14, [r0, #4]
 387 0026 B0EEC77A 		vabs.f32	s14, s14
 388 002a B4EEE77A 		vcmpe.f32	s14, s15
 389 002e F1EE10FA 		vmrs	APSR_nzcv, FPSCR
 390 0032 16DC     		bgt	.L22
 391              		.loc 1 163 0 is_stmt 1
 392 0034 BDF80E20 		ldrh	r2, [sp, #14]
 393 0038 6C49     		ldr	r1, .L60+4
 394 003a 6D48     		ldr	r0, .L60+8
 395              	.LVL20:
 396 003c FFF7FEFF 		bl	chprintf.constprop.0
 397              	.LVL21:
 398              		.loc 1 165 0
 399 0040 6C4B     		ldr	r3, .L60+12
ARM GAS  /var/folders/0b/rh7d8qts4ys3rdpl8xd_0jkm0000gn/T//ccr6auIp.s 			page 8


 400 0042 2022     		movs	r2, #32
 401 0044 9A61     		str	r2, [r3, #24]
 402              	.LVL22:
 403              	.L38:
 404              		.loc 1 166 0
 405 0046 6B4B     		ldr	r3, .L60+12
 406 0048 4021     		movs	r1, #64
 407              		.loc 1 167 0
 408 004a 4FF48062 		mov	r2, #1024
 409              		.loc 1 166 0
 410 004e 9961     		str	r1, [r3, #24]
 411              		.loc 1 167 0
 412 0050 9A61     		str	r2, [r3, #24]
 413              	.LVL23:
 414              	.L41:
 415              		.loc 1 166 0
 416 0052 4FF40062 		mov	r2, #2048
 417              	.L39:
 418              		.loc 1 168 0 discriminator 8
 419 0056 674B     		ldr	r3, .L60+12
 420 0058 9A61     		str	r2, [r3, #24]
 421              		.loc 1 170 0 discriminator 8
 422 005a 05B0     		add	sp, sp, #20
 423              		.cfi_remember_state
 424              		.cfi_def_cfa_offset 20
 425              		@ sp needed
 426 005c BDEC028B 		vldm	sp!, {d8}
 427              		.cfi_restore 80
 428              		.cfi_restore 81
 429              		.cfi_def_cfa_offset 12
 430 0060 30BD     		pop	{r4, r5, pc}
 431              	.LVL24:
 432              	.L22:
 433              		.cfi_restore_state
 434              	.LBB95:
 435              	.LBB96:
 436              	.LBB97:
 437              	.LBB98:
 438              	.LBB99:
 439              	.LBB100:
 440              		.loc 5 546 0
 441 0062 2023     		movs	r3, #32
 442              		.syntax unified
 443              	@ 546 "../../lib/ChibiOS/os/ext/CMSIS/include/core_cmFunc.h" 1
 444 0064 83F31188 		MSR basepri, r3
 445              	@ 0 "" 2
 446              	.LVL25:
 447              		.thumb
 448              		.syntax unified
 449              	.LBE100:
 450              	.LBE99:
 451              	.LBE98:
 452              	.LBE97:
 453              	.LBE96:
 454              		.loc 1 138 0
 455 0068 634D     		ldr	r5, .L60+16
 456              	.LBB102:
ARM GAS  /var/folders/0b/rh7d8qts4ys3rdpl8xd_0jkm0000gn/T//ccr6auIp.s 			page 9


 457              	.LBB101:
 458              		.loc 4 349 0
 459 006a FFF7FEFF 		bl	_stats_start_measure_crit_thd
 460              	.LVL26:
 461              		.loc 4 350 0
 462 006e FFF7FEFF 		bl	_dbg_check_lock
 463              	.LVL27:
 464              	.LBE101:
 465              	.LBE102:
 466              		.loc 1 138 0
 467 0072 EB68     		ldr	r3, [r5, #12]
 468              		.loc 1 140 0
 469 0074 6068     		ldr	r0, [r4, #4]	@ float
 470              		.loc 1 138 0
 471 0076 0022     		movs	r2, #0
 472 0078 5A62     		str	r2, [r3, #36]
 473              		.loc 1 140 0
 474 007a FFF7FEFF 		bl	__aeabi_f2d
 475              	.LVL28:
 476 007e CDE90001 		strd	r0, [sp]
 477 0082 2068     		ldr	r0, [r4]	@ float
 478 0084 FFF7FEFF 		bl	__aeabi_f2d
 479              	.LVL29:
 480 0088 9DED001B 		vldr.64	d1, [sp]
 481 008c 41EC100B 		vmov	d0, r0, r1
 482 0090 FFF7FEFF 		bl	atan2
 483              	.LVL30:
 484              		.loc 1 142 0
 485 0094 EB68     		ldr	r3, [r5, #12]
 486              		.loc 1 140 0
 487 0096 B0EE408A 		vmov.f32	s16, s0
 488 009a F0EE608A 		vmov.f32	s17, s1
 489              	.LVL31:
 490              		.loc 1 142 0
 491 009e 5B6A     		ldr	r3, [r3, #36]
 492 00a0 9BB2     		uxth	r3, r3
 493 00a2 ADF80E30 		strh	r3, [sp, #14]	@ movhi
 494              	.LBB103:
 495              	.LBB104:
 496              		.loc 4 360 0
 497 00a6 FFF7FEFF 		bl	_dbg_check_unlock
 498              	.LVL32:
 499              		.loc 4 361 0
 500 00aa FFF7FEFF 		bl	_stats_stop_measure_crit_thd
 501              	.LVL33:
 502              		.loc 4 367 0
 503 00ae 534B     		ldr	r3, .L60+20
 504 00b0 1A68     		ldr	r2, [r3]
 505 00b2 9A42     		cmp	r2, r3
 506 00b4 04D0     		beq	.L24
 507 00b6 9969     		ldr	r1, [r3, #24]
 508 00b8 9368     		ldr	r3, [r2, #8]
 509 00ba 8A68     		ldr	r2, [r1, #8]
 510 00bc 9A42     		cmp	r2, r3
 511 00be 79D3     		bcc	.L58
 512              	.L24:
 513              	.LVL34:
ARM GAS  /var/folders/0b/rh7d8qts4ys3rdpl8xd_0jkm0000gn/T//ccr6auIp.s 			page 10


 514              	.LBB105:
 515              	.LBB106:
 516              	.LBB107:
 517              		.loc 5 546 0
 518 00c0 0023     		movs	r3, #0
 519              		.syntax unified
 520              	@ 546 "../../lib/ChibiOS/os/ext/CMSIS/include/core_cmFunc.h" 1
 521 00c2 83F31188 		MSR basepri, r3
 522              	@ 0 "" 2
 523              	.LVL35:
 524              		.thumb
 525              		.syntax unified
 526              	.LBE107:
 527              	.LBE106:
 528              	.LBE105:
 529              	.LBE104:
 530              	.LBE103:
 531              		.loc 1 140 0
 532 00c6 51EC180B 		vmov	r0, r1, d8
 533 00ca FFF7FEFF 		bl	__aeabi_d2f
 534              	.LVL36:
 535              		.loc 1 145 0
 536 00ce 9FED4C8A 		vldr.32	s16, .L60+24
 537              	.LVL37:
 538              		.loc 1 149 0
 539 00d2 DFED4C7A 		vldr.32	s15, .L60+28
 540              		.loc 1 145 0
 541 00d6 07EE100A 		vmov	s14, r0
 542 00da 37EE088A 		vadd.f32	s16, s14, s16
 543              	.LVL38:
 544              		.loc 1 149 0
 545 00de B4EEE78A 		vcmpe.f32	s16, s15
 546 00e2 F1EE10FA 		vmrs	APSR_nzcv, FPSCR
 547              		.loc 1 150 0
 548 00e6 C4BF     		itt	gt
 549 00e8 DFED477A 		vldrgt.32	s15, .L60+32
 550 00ec 38EE678A 		vsubgt.f32	s16, s16, s15
 551              	.LVL39:
 552              		.loc 1 153 0
 553 00f0 B5EEC08A 		vcmpe.f32	s16, #0
 554 00f4 F1EE10FA 		vmrs	APSR_nzcv, FPSCR
 555 00f8 09DB     		blt	.L27
 556              		.loc 1 153 0 is_stmt 0 discriminator 1
 557 00fa DFED447A 		vldr.32	s15, .L60+36
 558 00fe B4EEE78A 		vcmpe.f32	s16, s15
 559 0102 F1EE10FA 		vmrs	APSR_nzcv, FPSCR
 560 0106 02D5     		bpl	.L27
 561              	.LBE95:
 562              		.loc 1 121 0 is_stmt 1
 563 0108 0025     		movs	r5, #0
 564              	.LBB110:
 565              		.loc 1 154 0
 566 010a 0124     		movs	r4, #1
 567              	.LVL40:
 568 010c 0FE0     		b	.L29
 569              	.LVL41:
 570              	.L27:
ARM GAS  /var/folders/0b/rh7d8qts4ys3rdpl8xd_0jkm0000gn/T//ccr6auIp.s 			page 11


 571              		.loc 1 155 0
 572 010e DFED3F7A 		vldr.32	s15, .L60+36
 573 0112 B4EEE78A 		vcmpe.f32	s16, s15
 574 0116 F1EE10FA 		vmrs	APSR_nzcv, FPSCR
 575 011a 22DB     		blt	.L30
 576              		.loc 1 155 0 is_stmt 0 discriminator 1
 577 011c DFED397A 		vldr.32	s15, .L60+28
 578 0120 B4EEE78A 		vcmpe.f32	s16, s15
 579 0124 F1EE10FA 		vmrs	APSR_nzcv, FPSCR
 580 0128 1BD5     		bpl	.L30
 581              		.loc 1 156 0 is_stmt 1
 582 012a 0125     		movs	r5, #1
 583              	.LBE110:
 584              		.loc 1 121 0
 585 012c 0024     		movs	r4, #0
 586              	.LVL42:
 587              	.L29:
 588              		.loc 1 163 0
 589 012e BDF80E20 		ldrh	r2, [sp, #14]
 590 0132 2E49     		ldr	r1, .L60+4
 591 0134 2E48     		ldr	r0, .L60+8
 592 0136 FFF7FEFF 		bl	chprintf.constprop.0
 593              	.LVL43:
 594              		.loc 1 165 0
 595 013a 2E4B     		ldr	r3, .L60+12
 596 013c 2021     		movs	r1, #32
 597              		.loc 1 167 0
 598 013e 002C     		cmp	r4, #0
 599              		.loc 1 166 0
 600 0140 4FF04002 		mov	r2, #64
 601              		.loc 1 165 0
 602 0144 9961     		str	r1, [r3, #24]
 603              		.loc 1 167 0
 604 0146 14BF     		ite	ne
 605 0148 4FF08061 		movne	r1, #67108864
 606 014c 4FF48061 		moveq	r1, #1024
 607              		.loc 1 166 0
 608 0150 9A61     		str	r2, [r3, #24]
 609              	.LVL44:
 610              	.L42:
 611              		.loc 1 167 0 discriminator 8
 612 0152 284B     		ldr	r3, .L60+12
 613 0154 9961     		str	r1, [r3, #24]
 614              		.loc 1 168 0 discriminator 8
 615 0156 002D     		cmp	r5, #0
 616 0158 3FF47BAF 		beq	.L41
 617 015c 4FF00062 		mov	r2, #134217728
 618 0160 79E7     		b	.L39
 619              	.LVL45:
 620              	.L30:
 621              	.LBB111:
 622              		.loc 1 157 0
 623 0162 DFED2B7A 		vldr.32	s15, .L60+40
 624 0166 B4EEE78A 		vcmpe.f32	s16, s15
 625 016a F1EE10FA 		vmrs	APSR_nzcv, FPSCR
 626 016e 06DB     		blt	.L32
 627              		.loc 1 157 0 is_stmt 0 discriminator 1
ARM GAS  /var/folders/0b/rh7d8qts4ys3rdpl8xd_0jkm0000gn/T//ccr6auIp.s 			page 12


 628 0170 DFED287A 		vldr.32	s15, .L60+44
 629 0174 B4EEE78A 		vcmpe.f32	s16, s15
 630 0178 F1EE10FA 		vmrs	APSR_nzcv, FPSCR
 631 017c 1ED4     		bmi	.L34
 632              	.L32:
 633              		.loc 1 159 0 is_stmt 1
 634 017e DFED257A 		vldr.32	s15, .L60+44
 635 0182 B4EEE78A 		vcmpe.f32	s16, s15
 636 0186 F1EE10FA 		vmrs	APSR_nzcv, FPSCR
 637 018a 22DB     		blt	.L54
 638              	.LVL46:
 639              	.LBE111:
 640              		.loc 1 163 0 discriminator 1
 641 018c BDF80E20 		ldrh	r2, [sp, #14]
 642 0190 1649     		ldr	r1, .L60+4
 643 0192 1748     		ldr	r0, .L60+8
 644 0194 FFF7FEFF 		bl	chprintf.constprop.0
 645              	.LVL47:
 646              		.loc 1 165 0 discriminator 1
 647 0198 164B     		ldr	r3, .L60+12
 648              		.loc 1 166 0 discriminator 1
 649 019a B5EEC08A 		vcmpe.f32	s16, #0
 650              		.loc 1 165 0 discriminator 1
 651 019e 2022     		movs	r2, #32
 652              		.loc 1 166 0 discriminator 1
 653 01a0 F1EE10FA 		vmrs	APSR_nzcv, FPSCR
 654              		.loc 1 165 0 discriminator 1
 655 01a4 9A61     		str	r2, [r3, #24]
 656              		.loc 1 166 0 discriminator 1
 657 01a6 17D4     		bmi	.L59
 658              		.loc 1 166 0 is_stmt 0
 659 01a8 4022     		movs	r2, #64
 660 01aa 9A61     		str	r2, [r3, #24]
 661              		.loc 1 121 0 is_stmt 1
 662 01ac 0025     		movs	r5, #0
 663              		.loc 1 166 0
 664 01ae 4FF48061 		mov	r1, #1024
 665 01b2 CEE7     		b	.L42
 666              	.LVL48:
 667              	.L58:
 668              	.LBB112:
 669              	.LBB109:
 670              	.LBB108:
 671              		.loc 4 367 0
 672 01b4 1848     		ldr	r0, .L60+48
 673 01b6 FFF7FEFF 		bl	chSysHalt
 674              	.LVL49:
 675 01ba 81E7     		b	.L24
 676              	.LVL50:
 677              	.L34:
 678              	.LBE108:
 679              	.LBE109:
 680              	.LBE112:
 681              		.loc 1 163 0
 682 01bc BDF80E20 		ldrh	r2, [sp, #14]
 683 01c0 0A49     		ldr	r1, .L60+4
 684 01c2 0B48     		ldr	r0, .L60+8
ARM GAS  /var/folders/0b/rh7d8qts4ys3rdpl8xd_0jkm0000gn/T//ccr6auIp.s 			page 13


 685 01c4 FFF7FEFF 		bl	chprintf.constprop.0
 686              	.LVL51:
 687              		.loc 1 165 0
 688 01c8 0A4B     		ldr	r3, .L60+12
 689 01ca 4FF40012 		mov	r2, #2097152
 690 01ce 9A61     		str	r2, [r3, #24]
 691 01d0 39E7     		b	.L38
 692              	.LVL52:
 693              	.L54:
 694              		.loc 1 121 0
 695 01d2 0025     		movs	r5, #0
 696 01d4 2C46     		mov	r4, r5
 697              	.LVL53:
 698 01d6 AAE7     		b	.L29
 699              	.LVL54:
 700              	.L59:
 701              		.loc 1 166 0
 702 01d8 4FF48001 		mov	r1, #4194304
 703              		.loc 1 167 0
 704 01dc 4FF48062 		mov	r2, #1024
 705              		.loc 1 166 0
 706 01e0 9961     		str	r1, [r3, #24]
 707              		.loc 1 167 0
 708 01e2 9A61     		str	r2, [r3, #24]
 709 01e4 35E7     		b	.L41
 710              	.L61:
 711 01e6 00BF     		.align	2
 712              	.L60:
 713 01e8 CDCC4C3E 		.word	1045220557
 714 01ec 00000000 		.word	.LC0
 715 01f0 00000000 		.word	SD3
 716 01f4 000C0240 		.word	1073875968
 717 01f8 00000000 		.word	GPTD11
 718 01fc 00000000 		.word	ch
 719 0200 DB0F493F 		.word	1061752795
 720 0204 DB0F4940 		.word	1078530011
 721 0208 DB0FC940 		.word	1086918619
 722 020c DB0FC93F 		.word	1070141403
 723 0210 DB0F49C0 		.word	3226013659
 724 0214 DB0FC9BF 		.word	3217625051
 725 0218 00000000 		.word	.LANCHOR2
 726              		.cfi_endproc
 727              	.LFE262:
 728              		.size	show_gravity, .-show_gravity
 729              		.section	.text.startup.main,"ax",%progbits
 730              		.align	1
 731              		.p2align 4,,15
 732              		.global	main
 733              		.syntax unified
 734              		.thumb
 735              		.thumb_func
 736              		.fpu fpv4-sp-d16
 737              		.type	main, %function
 738              	main:
 739              	.LFB263:
 740              		.loc 1 173 0
 741              		.cfi_startproc
ARM GAS  /var/folders/0b/rh7d8qts4ys3rdpl8xd_0jkm0000gn/T//ccr6auIp.s 			page 14


 742              		@ args = 0, pretend = 0, frame = 80
 743              		@ frame_needed = 0, uses_anonymous_args = 0
 744 0000 2DE9F04F 		push	{r4, r5, r6, r7, r8, r9, r10, fp, lr}
 745              		.cfi_def_cfa_offset 36
 746              		.cfi_offset 4, -36
 747              		.cfi_offset 5, -32
 748              		.cfi_offset 6, -28
 749              		.cfi_offset 7, -24
 750              		.cfi_offset 8, -20
 751              		.cfi_offset 9, -16
 752              		.cfi_offset 10, -12
 753              		.cfi_offset 11, -8
 754              		.cfi_offset 14, -4
 755 0004 A1B0     		sub	sp, sp, #132
 756              		.cfi_def_cfa_offset 168
 757              		.loc 1 175 0
 758 0006 FFF7FEFF 		bl	halInit
 759              	.LVL55:
 760              		.loc 1 176 0
 761 000a FFF7FEFF 		bl	chSysInit
 762              	.LVL56:
 763              	.LBB117:
 764              	.LBB118:
 765              		.loc 1 47 0
 766 000e 5649     		ldr	r1, .L65
 767 0010 5648     		ldr	r0, .L65+4
 768              	.LBE118:
 769              	.LBE117:
 770              		.loc 1 206 0
 771 0012 574D     		ldr	r5, .L65+8
 772              		.loc 1 220 0
 773 0014 DFF88491 		ldr	r9, .L65+52
 774              	.LBB120:
 775              	.LBB119:
 776              		.loc 1 47 0
 777 0018 FFF7FEFF 		bl	sdStart
 778              	.LVL57:
 779              	.LBE119:
 780              	.LBE120:
 781              	.LBB121:
 782              	.LBB122:
 783              		.loc 1 61 0
 784 001c 5549     		ldr	r1, .L65+12
 785 001e 5648     		ldr	r0, .L65+16
 786 0020 FFF7FEFF 		bl	gptStart
 787              	.LVL58:
 788              		.loc 1 63 0
 789 0024 4FF6FF71 		movw	r1, #65535
 790 0028 5348     		ldr	r0, .L65+16
 791 002a FFF7FEFF 		bl	gptStartContinuous
 792              	.LVL59:
 793              	.LBE122:
 794              	.LBE121:
 795              		.loc 1 189 0
 796 002e 0024     		movs	r4, #0
 797              		.loc 1 179 0
 798 0030 FFF7FEFF 		bl	i2c_start
ARM GAS  /var/folders/0b/rh7d8qts4ys3rdpl8xd_0jkm0000gn/T//ccr6auIp.s 			page 15


 799              	.LVL60:
 800              		.loc 1 180 0
 801 0034 FFF7FEFF 		bl	imu_start
 802              	.LVL61:
 803              		.loc 1 183 0
 804 0038 504A     		ldr	r2, .L65+20
 805 003a 5149     		ldr	r1, .L65+24
 806 003c 5148     		ldr	r0, .L65+28
 807 003e FFF7FEFF 		bl	messagebus_init
 808              	.LVL62:
 809              		.loc 1 189 0
 810 0042 0094     		str	r4, [sp]
 811 0044 504B     		ldr	r3, .L65+32
 812 0046 5148     		ldr	r0, .L65+36
 813 0048 4022     		movs	r2, #64
 814 004a 4FF4FC71 		mov	r1, #504
 815 004e FFF7FEFF 		bl	chThdCreateStatic
 816              	.LVL63:
 817              		.loc 1 190 0
 818 0052 4F4B     		ldr	r3, .L65+40
 819 0054 0094     		str	r4, [sp]
 820 0056 4122     		movs	r2, #65
 821 0058 4FF4FC71 		mov	r1, #504
 822 005c 4D48     		ldr	r0, .L65+44
 823              		.loc 1 206 0
 824 005e 434C     		ldr	r4, .L65+4
 825              		.loc 1 190 0
 826 0060 FFF7FEFF 		bl	chThdCreateStatic
 827              	.LVL64:
 828              		.loc 1 193 0
 829 0064 4220     		movs	r0, #66
 830 0066 FFF7FEFF 		bl	chThdSetPriority
 831              	.LVL65:
 832              		.loc 1 195 0
 833 006a 4B49     		ldr	r1, .L65+48
 834 006c 4548     		ldr	r0, .L65+28
 835 006e FFF7FEFF 		bl	messagebus_find_topic_blocking
 836              	.LVL66:
 837 0072 8046     		mov	r8, r0
 838              	.LVL67:
 839              		.loc 1 199 0
 840 0074 4FF4FA60 		mov	r0, #2000
 841              	.LVL68:
 842 0078 FFF7FEFF 		bl	chThdSleep
 843              	.LVL69:
 844              		.loc 1 200 0
 845 007c 4046     		mov	r0, r8
 846 007e C821     		movs	r1, #200
 847 0080 FFF7FEFF 		bl	imu_compute_offset
 848              	.LVL70:
 849              	.L63:
 850              		.loc 1 204 0 discriminator 1
 851 0084 0CA9     		add	r1, sp, #48
 852 0086 4046     		mov	r0, r8
 853 0088 5022     		movs	r2, #80
 854 008a FFF7FEFF 		bl	messagebus_topic_wait
 855              	.LVL71:
ARM GAS  /var/folders/0b/rh7d8qts4ys3rdpl8xd_0jkm0000gn/T//ccr6auIp.s 			page 16


 856              		.loc 1 206 0 discriminator 1
 857 008e BDF96270 		ldrsh	r7, [sp, #98]
 858 0092 BDF96060 		ldrsh	r6, [sp, #96]
 859 0096 BDF95E00 		ldrsh	r0, [sp, #94]
 860 009a BDF95C10 		ldrsh	r1, [sp, #92]
 861 009e BDF95A30 		ldrsh	r3, [sp, #90]
 862 00a2 BDF95820 		ldrsh	r2, [sp, #88]
 863 00a6 CDE90267 		strd	r6, r7, [sp, #8]
 864 00aa CDE90010 		strd	r1, r0, [sp]
 865 00ae 2946     		mov	r1, r5
 866 00b0 2046     		mov	r0, r4
 867 00b2 FFF7FEFF 		bl	chprintf.constprop.0
 868              	.LVL72:
 869              		.loc 1 217 0 discriminator 1
 870 00b6 BDF962B0 		ldrsh	fp, [sp, #98]
 871 00ba BDF96E20 		ldrsh	r2, [sp, #110]
 872              		.loc 1 216 0 discriminator 1
 873 00be BDF96C70 		ldrsh	r7, [sp, #108]
 874 00c2 BDF96060 		ldrsh	r6, [sp, #96]
 875              		.loc 1 214 0 discriminator 1
 876 00c6 BDF968E0 		ldrsh	lr, [sp, #104]
 877              		.loc 1 215 0 discriminator 1
 878 00ca BDF95E00 		ldrsh	r0, [sp, #94]
 879 00ce BDF96AA0 		ldrsh	r10, [sp, #106]
 880              		.loc 1 214 0 discriminator 1
 881 00d2 BDF95C10 		ldrsh	r1, [sp, #92]
 882              		.loc 1 213 0 discriminator 1
 883 00d6 BDF95AC0 		ldrsh	ip, [sp, #90]
 884 00da BDF96630 		ldrsh	r3, [sp, #102]
 885              		.loc 1 211 0 discriminator 1
 886 00de ABEB0202 		sub	r2, fp, r2
 887 00e2 F61B     		subs	r6, r6, r7
 888 00e4 0392     		str	r2, [sp, #12]
 889              		.loc 1 212 0 discriminator 1
 890 00e6 BDF95870 		ldrsh	r7, [sp, #88]
 891 00ea BDF96420 		ldrsh	r2, [sp, #100]
 892              		.loc 1 211 0 discriminator 1
 893 00ee 0296     		str	r6, [sp, #8]
 894 00f0 A1EB0E01 		sub	r1, r1, lr
 895 00f4 A0EB0A00 		sub	r0, r0, r10
 896 00f8 ACEB0303 		sub	r3, ip, r3
 897 00fc BA1A     		subs	r2, r7, r2
 898 00fe CDE90010 		strd	r1, r0, [sp]
 899 0102 2946     		mov	r1, r5
 900 0104 2046     		mov	r0, r4
 901 0106 FFF7FEFF 		bl	chprintf.constprop.0
 902              	.LVL73:
 903              		.loc 1 220 0 discriminator 1
 904 010a 0C98     		ldr	r0, [sp, #48]	@ float
 905 010c FFF7FEFF 		bl	__aeabi_f2d
 906              	.LVL74:
 907 0110 9DF87C30 		ldrb	r3, [sp, #124]	@ zero_extendqisi2
 908 0114 0A93     		str	r3, [sp, #40]
 909 0116 0646     		mov	r6, r0
 910 0118 1198     		ldr	r0, [sp, #68]	@ float
 911 011a 0F46     		mov	r7, r1
 912 011c FFF7FEFF 		bl	__aeabi_f2d
ARM GAS  /var/folders/0b/rh7d8qts4ys3rdpl8xd_0jkm0000gn/T//ccr6auIp.s 			page 17


 913              	.LVL75:
 914 0120 CDE90801 		strd	r0, [sp, #32]
 915 0124 1098     		ldr	r0, [sp, #64]	@ float
 916 0126 FFF7FEFF 		bl	__aeabi_f2d
 917              	.LVL76:
 918 012a CDE90601 		strd	r0, [sp, #24]
 919 012e 0F98     		ldr	r0, [sp, #60]	@ float
 920 0130 FFF7FEFF 		bl	__aeabi_f2d
 921              	.LVL77:
 922 0134 CDE90401 		strd	r0, [sp, #16]
 923 0138 0E98     		ldr	r0, [sp, #56]	@ float
 924 013a FFF7FEFF 		bl	__aeabi_f2d
 925              	.LVL78:
 926 013e CDE90201 		strd	r0, [sp, #8]
 927 0142 0D98     		ldr	r0, [sp, #52]	@ float
 928 0144 FFF7FEFF 		bl	__aeabi_f2d
 929              	.LVL79:
 930 0148 3246     		mov	r2, r6
 931 014a CDE90001 		strd	r0, [sp]
 932 014e 3B46     		mov	r3, r7
 933 0150 4946     		mov	r1, r9
 934 0152 2046     		mov	r0, r4
 935 0154 FFF7FEFF 		bl	chprintf.constprop.0
 936              	.LVL80:
 937              		.loc 1 225 0 discriminator 1
 938 0158 0CA8     		add	r0, sp, #48
 939 015a FFF7FEFF 		bl	show_gravity
 940              	.LVL81:
 941              		.loc 1 226 0 discriminator 1
 942 015e 6420     		movs	r0, #100
 943 0160 FFF7FEFF 		bl	chThdSleep
 944              	.LVL82:
 945 0164 8EE7     		b	.L63
 946              	.L66:
 947 0166 00BF     		.align	2
 948              	.L65:
 949 0168 00000000 		.word	.LANCHOR3
 950 016c 00000000 		.word	SD3
 951 0170 08000000 		.word	.LC2
 952 0174 00000000 		.word	.LANCHOR4
 953 0178 00000000 		.word	GPTD11
 954 017c 00000000 		.word	.LANCHOR5
 955 0180 00000000 		.word	.LANCHOR6
 956 0184 00000000 		.word	.LANCHOR7
 957 0188 00000000 		.word	ThdFrontLed
 958 018c 00000000 		.word	.LANCHOR8
 959 0190 00000000 		.word	ThdBodyLed
 960 0194 00000000 		.word	.LANCHOR9
 961 0198 00000000 		.word	.LC1
 962 019c 3C000000 		.word	.LC3
 963              		.cfi_endproc
 964              	.LFE263:
 965              		.size	main, .-main
 966              		.global	bus_condvar
 967              		.global	bus_lock
 968              		.global	bus
 969              		.section	.bss.bus,"aw",%nobits
ARM GAS  /var/folders/0b/rh7d8qts4ys3rdpl8xd_0jkm0000gn/T//ccr6auIp.s 			page 18


 970              		.align	2
 971              		.set	.LANCHOR7,. + 0
 972              		.type	bus, %object
 973              		.size	bus, 12
 974              	bus:
 975 0000 00000000 		.space	12
 975      00000000 
 975      00000000 
 976              		.section	.bss.waThdBodyLed,"aw",%nobits
 977              		.align	3
 978              		.set	.LANCHOR9,. + 0
 979              		.type	waThdBodyLed, %object
 980              		.size	waThdBodyLed, 504
 981              	waThdBodyLed:
 982 0000 00000000 		.space	504
 982      00000000 
 982      00000000 
 982      00000000 
 982      00000000 
 983              		.section	.bss.waThdFrontLed,"aw",%nobits
 984              		.align	3
 985              		.set	.LANCHOR8,. + 0
 986              		.type	waThdFrontLed, %object
 987              		.size	waThdFrontLed, 504
 988              	waThdFrontLed:
 989 0000 00000000 		.space	504
 989      00000000 
 989      00000000 
 989      00000000 
 989      00000000 
 990              		.section	.data.bus_condvar,"aw",%progbits
 991              		.align	2
 992              		.set	.LANCHOR5,. + 0
 993              		.type	bus_condvar, %object
 994              		.size	bus_condvar, 8
 995              	bus_condvar:
 996 0000 00000000 		.word	bus_condvar
 997 0004 00000000 		.word	bus_condvar
 998              		.section	.data.bus_lock,"aw",%progbits
 999              		.align	2
 1000              		.set	.LANCHOR6,. + 0
 1001              		.type	bus_lock, %object
 1002              		.size	bus_lock, 20
 1003              	bus_lock:
 1004 0000 00000000 		.word	bus_lock
 1005 0004 00000000 		.word	bus_lock
 1006 0008 00000000 		.word	0
 1007 000c 00000000 		.word	0
 1008 0010 00000000 		.word	0
 1009              		.section	.data.ser_cfg.10164,"aw",%progbits
 1010              		.align	2
 1011              		.set	.LANCHOR3,. + 0
 1012              		.type	ser_cfg.10164, %object
 1013              		.size	ser_cfg.10164, 12
 1014              	ser_cfg.10164:
 1015 0000 00C20100 		.word	115200
 1016 0004 0000     		.short	0
ARM GAS  /var/folders/0b/rh7d8qts4ys3rdpl8xd_0jkm0000gn/T//ccr6auIp.s 			page 19


 1017 0006 0000     		.short	0
 1018 0008 0000     		.short	0
 1019 000a 0000     		.space	2
 1020              		.section	.rodata.__FUNCTION__.10173,"a",%progbits
 1021              		.align	2
 1022              		.set	.LANCHOR1,. + 0
 1023              		.type	__FUNCTION__.10173, %object
 1024              		.size	__FUNCTION__.10173, 12
 1025              	__FUNCTION__.10173:
 1026 0000 54686446 		.ascii	"ThdFrontLed\000"
 1026      726F6E74 
 1026      4C656400 
 1027              		.section	.rodata.__FUNCTION__.10180,"a",%progbits
 1028              		.align	2
 1029              		.set	.LANCHOR0,. + 0
 1030              		.type	__FUNCTION__.10180, %object
 1031              		.size	__FUNCTION__.10180, 11
 1032              	__FUNCTION__.10180:
 1033 0000 54686442 		.ascii	"ThdBodyLed\000"
 1033      6F64794C 
 1033      656400
 1034              		.section	.rodata.__func__.7153,"a",%progbits
 1035              		.align	2
 1036              		.set	.LANCHOR2,. + 0
 1037              		.type	__func__.7153, %object
 1038              		.size	__func__.7153, 12
 1039              	__func__.7153:
 1040 0000 63685379 		.ascii	"chSysUnlock\000"
 1040      73556E6C 
 1040      6F636B00 
 1041              		.section	.rodata.gpt11cfg.10168,"a",%progbits
 1042              		.align	2
 1043              		.set	.LANCHOR4,. + 0
 1044              		.type	gpt11cfg.10168, %object
 1045              		.size	gpt11cfg.10168, 16
 1046              	gpt11cfg.10168:
 1047 0000 40420F00 		.word	1000000
 1048 0004 00000000 		.word	0
 1049 0008 00000000 		.word	0
 1050 000c 00000000 		.word	0
 1051              		.section	.rodata.main.str1.4,"aMS",%progbits,1
 1052              		.align	2
 1053              	.LC1:
 1054 0000 2F696D75 		.ascii	"/imu\000"
 1054      00
 1055 0005 000000   		.space	3
 1056              	.LC2:
 1057 0008 2541783D 		.ascii	"%Ax=%-7d Ay=%-7d Az=%-7d Gx=%-7d Gy=%-7d Gz=%-7d\015"
 1057      252D3764 
 1057      2041793D 
 1057      252D3764 
 1057      20417A3D 
 1058 0039 0A00     		.ascii	"\012\000"
 1059 003b 00       		.space	1
 1060              	.LC3:
 1061 003c 2541783D 		.ascii	"%Ax=%.2f Ay=%.2f Az=%.2f Gx=%.2f Gy=%.2f Gz=%.2f (%"
 1061      252E3266 
ARM GAS  /var/folders/0b/rh7d8qts4ys3rdpl8xd_0jkm0000gn/T//ccr6auIp.s 			page 20


 1061      2041793D 
 1061      252E3266 
 1061      20417A3D 
 1062 006f 78290D0A 		.ascii	"x)\015\012\012\000"
 1062      0A00
 1063              		.section	.rodata.show_gravity.str1.4,"aMS",%progbits,1
 1064              		.align	2
 1065              	.LC0:
 1066 0000 74696D65 		.ascii	"time = %dus\012\000"
 1066      203D2025 
 1066      6475730A 
 1066      00
 1067              		.text
 1068              	.Letext0:
 1069              		.file 7 "/Applications/Eclipse_e-puck2.app/Contents/Eclipse_e-puck2/Tools/gcc-arm-none-eabi-7-2017
 1070              		.file 8 "/Applications/Eclipse_e-puck2.app/Contents/Eclipse_e-puck2/Tools/gcc-arm-none-eabi-7-2017
 1071              		.file 9 "/Applications/Eclipse_e-puck2.app/Contents/Eclipse_e-puck2/Tools/gcc-arm-none-eabi-7-2017
 1072              		.file 10 "../../lib/ChibiOS/os/rt/ports/ARMCMx/compilers/GCC/chtypes.h"
 1073              		.file 11 "../../lib/ChibiOS/os/rt/include/chsystypes.h"
 1074              		.file 12 "../../lib/ChibiOS/os/rt/include/chschd.h"
 1075              		.file 13 "../../lib/ChibiOS/os/ext/CMSIS/include/core_cm4.h"
 1076              		.file 14 "../../lib/ChibiOS/os/ext/CMSIS/ST/system_stm32f4xx.h"
 1077              		.file 15 "../../lib/ChibiOS/os/ext/CMSIS/ST/stm32f407xx.h"
 1078              		.file 16 "../../lib/ChibiOS/os/rt/ports/ARMCMx/chcore.h"
 1079              		.file 17 "../../lib/ChibiOS/os/rt/ports/ARMCMx/chcore_v7m.h"
 1080              		.file 18 "../../lib/ChibiOS/os/rt/include/chdebug.h"
 1081              		.file 19 "../../lib/ChibiOS/os/rt/include/chtm.h"
 1082              		.file 20 "../../lib/ChibiOS/os/rt/include/chstats.h"
 1083              		.file 21 "../../lib/ChibiOS/os/rt/include/chsem.h"
 1084              		.file 22 "../../lib/ChibiOS/os/rt/include/chmtx.h"
 1085              		.file 23 "../../lib/ChibiOS/os/rt/include/chcond.h"
 1086              		.file 24 "../../lib/ChibiOS/os/rt/include/chevents.h"
 1087              		.file 25 "../../lib/ChibiOS/os/rt/include/chqueues.h"
 1088              		.file 26 "../../lib/ChibiOS/os/rt/include/chstreams.h"
 1089              		.file 27 "../../lib/ChibiOS/os/hal/ports/STM32/STM32F4xx/stm32_dma.h"
 1090              		.file 28 "../../lib/ChibiOS/os/hal/ports/STM32/LLD/GPIOv2/pal_lld.h"
 1091              		.file 29 "../../lib/ChibiOS/os/hal/include/gpt.h"
 1092              		.file 30 "../../lib/ChibiOS/os/hal/ports/STM32/LLD/TIMv1/gpt_lld.h"
 1093              		.file 31 "../../lib/ChibiOS/os/hal/ports/STM32/LLD/TIMv1/stm32_tim.h"
 1094              		.file 32 "../../lib/ChibiOS/os/hal/include/i2c.h"
 1095              		.file 33 "../../lib/ChibiOS/os/hal/ports/STM32/LLD/I2Cv1/i2c_lld.h"
 1096              		.file 34 "../../lib/ChibiOS/os/hal/include/serial.h"
 1097              		.file 35 "../../lib/ChibiOS/os/hal/ports/STM32/LLD/USARTv1/serial_lld.h"
 1098              		.file 36 "../../lib/ChibiOS/os/hal/include/usb.h"
 1099              		.file 37 "../../lib/ChibiOS/os/hal/ports/STM32/LLD/OTGv1/usb_lld.h"
 1100              		.file 38 "../../lib/ChibiOS/os/hal/ports/STM32/LLD/OTGv1/stm32_otg.h"
 1101              		.file 39 "/Applications/Eclipse_e-puck2.app/Contents/Eclipse_e-puck2/Tools/gcc-arm-none-eabi-7-201
 1102              		.file 40 "/Applications/Eclipse_e-puck2.app/Contents/Eclipse_e-puck2/Tools/gcc-arm-none-eabi-7-201
 1103              		.file 41 "/Applications/Eclipse_e-puck2.app/Contents/Eclipse_e-puck2/Tools/gcc-arm-none-eabi-7-201
 1104              		.file 42 "/Applications/Eclipse_e-puck2.app/Contents/Eclipse_e-puck2/Tools/gcc-arm-none-eabi-7-201
 1105              		.file 43 "/Applications/Eclipse_e-puck2.app/Contents/Eclipse_e-puck2/Tools/gcc-arm-none-eabi-7-201
 1106              		.file 44 "<built-in>"
 1107              		.file 45 "/Applications/Eclipse_e-puck2.app/Contents/Eclipse_e-puck2/Tools/gcc-arm-none-eabi-7-201
 1108              		.file 46 "../../lib/msgbus/messagebus.h"
 1109              		.file 47 "./mpu9250.h"
 1110              		.file 48 "./imu.h"
 1111              		.file 49 "../../lib/ChibiOS/os/hal/include/hal.h"
ARM GAS  /var/folders/0b/rh7d8qts4ys3rdpl8xd_0jkm0000gn/T//ccr6auIp.s 			page 21


 1112              		.file 50 "./i2c_bus.h"
 1113              		.file 51 "../../lib/ChibiOS/os/rt/include/chthreads.h"