ARM GAS  /var/folders/0b/rh7d8qts4ys3rdpl8xd_0jkm0000gn/T//ccIZEUn5.s 			page 1


   1              		.cpu cortex-m4
   2              		.eabi_attribute 27, 1
   3              		.eabi_attribute 28, 1
   4              		.eabi_attribute 20, 1
   5              		.eabi_attribute 21, 1
   6              		.eabi_attribute 23, 3
   7              		.eabi_attribute 24, 1
   8              		.eabi_attribute 25, 1
   9              		.eabi_attribute 26, 1
  10              		.eabi_attribute 30, 2
  11              		.eabi_attribute 34, 1
  12              		.eabi_attribute 18, 4
  13              		.file	"audio_processing.c"
  14              		.text
  15              	.Ltext0:
  16              		.cfi_sections	.debug_frame
  17              		.section	.text.chprintf.constprop.0,"ax",%progbits
  18              		.align	1
  19              		.p2align 4,,15
  20              		.syntax unified
  21              		.thumb
  22              		.thumb_func
  23              		.fpu fpv4-sp-d16
  24              		.type	chprintf.constprop.0, %function
  25              	chprintf.constprop.0:
  26              	.LFB295:
  27              		.file 1 "../../lib/e-puck2_main-processor/ChibiOS//os/hal/lib/streams/chprintf.h"
  28              		.loc 1 69 0
  29              		.cfi_startproc
  30              		@ args = 4, pretend = 12, frame = 8
  31              		@ frame_needed = 0, uses_anonymous_args = 1
  32              	.LVL0:
  33 0000 0EB4     		push	{r1, r2, r3}
  34              		.cfi_def_cfa_offset 12
  35              		.cfi_offset 1, -12
  36              		.cfi_offset 2, -8
  37              		.cfi_offset 3, -4
  38 0002 10B5     		push	{r4, lr}
  39              		.cfi_def_cfa_offset 20
  40              		.cfi_offset 4, -20
  41              		.cfi_offset 14, -16
  42 0004 0A4C     		ldr	r4, .L6
  43              		.loc 1 74 0
  44 0006 0B49     		ldr	r1, .L6+4
  45              		.loc 1 69 0
  46 0008 2368     		ldr	r3, [r4]
  47              		.loc 1 74 0
  48 000a 0B48     		ldr	r0, .L6+8
  49              	.LVL1:
  50              		.loc 1 69 0
  51 000c 83B0     		sub	sp, sp, #12
  52              		.cfi_def_cfa_offset 32
  53              		.loc 1 69 0
  54 000e 0193     		str	r3, [sp, #4]
  55              	.LVL2:
  56              		.loc 1 73 0
  57 0010 06AB     		add	r3, sp, #24
ARM GAS  /var/folders/0b/rh7d8qts4ys3rdpl8xd_0jkm0000gn/T//ccIZEUn5.s 			page 2


  58              		.loc 1 74 0
  59 0012 1A46     		mov	r2, r3
  60              		.loc 1 73 0
  61 0014 0093     		str	r3, [sp]
  62              		.loc 1 74 0
  63 0016 FFF7FEFF 		bl	chvprintf
  64              	.LVL3:
  65              		.loc 1 78 0
  66 001a 019A     		ldr	r2, [sp, #4]
  67 001c 2368     		ldr	r3, [r4]
  68 001e 9A42     		cmp	r2, r3
  69 0020 04D1     		bne	.L5
  70 0022 03B0     		add	sp, sp, #12
  71              		.cfi_remember_state
  72              		.cfi_def_cfa_offset 20
  73              		@ sp needed
  74 0024 BDE81040 		pop	{r4, lr}
  75              		.cfi_restore 14
  76              		.cfi_restore 4
  77              		.cfi_def_cfa_offset 12
  78 0028 03B0     		add	sp, sp, #12
  79              		.cfi_restore 3
  80              		.cfi_restore 2
  81              		.cfi_restore 1
  82              		.cfi_def_cfa_offset 0
  83 002a 7047     		bx	lr
  84              	.L5:
  85              		.cfi_restore_state
  86 002c FFF7FEFF 		bl	__stack_chk_fail
  87              	.LVL4:
  88              	.L7:
  89              		.align	2
  90              	.L6:
  91 0030 00000000 		.word	__stack_chk_guard
  92 0034 00000000 		.word	.LC0
  93 0038 00000000 		.word	SD3
  94              		.cfi_endproc
  95              	.LFE295:
  96              		.size	chprintf.constprop.0, .-chprintf.constprop.0
  97              		.global	__aeabi_f2d
  98              		.section	.text.sound_remote,"ax",%progbits
  99              		.align	1
 100              		.p2align 4,,15
 101              		.global	sound_remote
 102              		.syntax unified
 103              		.thumb
 104              		.thumb_func
 105              		.fpu fpv4-sp-d16
 106              		.type	sound_remote, %function
 107              	sound_remote:
 108              	.LFB290:
 109              		.file 2 "audio_processing.c"
 110              		.loc 2 66 0
 111              		.cfi_startproc
 112              		@ args = 0, pretend = 0, frame = 8
 113              		@ frame_needed = 0, uses_anonymous_args = 0
 114              	.LVL5:
ARM GAS  /var/folders/0b/rh7d8qts4ys3rdpl8xd_0jkm0000gn/T//ccIZEUn5.s 			page 3


 115 0000 30B5     		push	{r4, r5, lr}
 116              		.cfi_def_cfa_offset 12
 117              		.cfi_offset 4, -12
 118              		.cfi_offset 5, -8
 119              		.cfi_offset 14, -4
 120 0002 584D     		ldr	r5, .L28
 121              		.loc 2 68 0
 122 0004 9FED587A 		vldr.32	s14, .L28+4
 123              		.loc 2 66 0
 124 0008 2B68     		ldr	r3, [r5]
 125 000a 85B0     		sub	sp, sp, #20
 126              		.cfi_def_cfa_offset 32
 127 000c 00F12802 		add	r2, r0, #40
 128              		.loc 2 66 0
 129 0010 0393     		str	r3, [sp, #12]
 130              	.LVL6:
 131              		.loc 2 69 0
 132 0012 4FF0FF34 		mov	r4, #-1
 133              		.loc 2 66 0
 134 0016 0A23     		movs	r3, #10
 135              	.LVL7:
 136              	.L11:
 137              	.LBB30:
 138              		.loc 2 73 0
 139 0018 F2EC017A 		vldmia.32	r2!, {s15}
 140 001c F4EEC77A 		vcmpe.f32	s15, s14
 141 0020 F1EE10FA 		vmrs	APSR_nzcv, FPSCR
 142              	.LVL8:
 143              		.loc 2 75 0
 144 0024 C8BF     		it	gt
 145 0026 1CB2     		sxthgt	r4, r3
 146              	.LVL9:
 147 0028 03F10103 		add	r3, r3, #1
 148              	.LVL10:
 149              		.loc 2 74 0
 150 002c C8BF     		it	gt
 151 002e B0EE677A 		vmovgt.f32	s14, s15
 152              	.LVL11:
 153              		.loc 2 72 0
 154 0032 1F2B     		cmp	r3, #31
 155 0034 F0D1     		bne	.L11
 156              	.LBE30:
 157              		.loc 2 78 0
 158 0036 00EB8400 		add	r0, r0, r4, lsl #2
 159              	.LVL12:
 160 003a 0068     		ldr	r0, [r0]	@ float
 161 003c FFF7FEFF 		bl	__aeabi_f2d
 162              	.LVL13:
 163 0040 2246     		mov	r2, r4
 164 0042 CDE90001 		strd	r0, [sp]
 165              		.loc 2 79 0
 166 0046 A4B2     		uxth	r4, r4
 167              		.loc 2 78 0
 168 0048 4849     		ldr	r1, .L28+8
 169 004a 4948     		ldr	r0, .L28+12
 170 004c FFF7FEFF 		bl	chprintf.constprop.0
 171              	.LVL14:
ARM GAS  /var/folders/0b/rh7d8qts4ys3rdpl8xd_0jkm0000gn/T//ccIZEUn5.s 			page 4


 172              		.loc 2 79 0
 173 0050 A4F11203 		sub	r3, r4, #18
 174 0054 022B     		cmp	r3, #2
 175 0056 44D9     		bls	.L25
 176              		.loc 2 86 0
 177 0058 A4F11903 		sub	r3, r4, #25
 178 005c 022B     		cmp	r3, #2
 179 005e 21D9     		bls	.L26
 180              		.loc 2 93 0
 181 0060 163C     		subs	r4, r4, #22
 182 0062 022C     		cmp	r4, #2
 183 0064 5CD9     		bls	.L27
 184              		.loc 2 101 0
 185 0066 0023     		movs	r3, #0
 186 0068 1A46     		mov	r2, r3
 187 006a 1946     		mov	r1, r3
 188 006c 1846     		mov	r0, r3
 189 006e FFF7FEFF 		bl	set_rgb_led
 190              	.LVL15:
 191              		.loc 2 102 0
 192 0072 0023     		movs	r3, #0
 193 0074 1A46     		mov	r2, r3
 194 0076 1946     		mov	r1, r3
 195 0078 0120     		movs	r0, #1
 196 007a FFF7FEFF 		bl	set_rgb_led
 197              	.LVL16:
 198              		.loc 2 103 0
 199 007e 0023     		movs	r3, #0
 200 0080 1A46     		mov	r2, r3
 201 0082 1946     		mov	r1, r3
 202 0084 0220     		movs	r0, #2
 203 0086 FFF7FEFF 		bl	set_rgb_led
 204              	.LVL17:
 205              		.loc 2 104 0
 206 008a 039A     		ldr	r2, [sp, #12]
 207 008c 2B68     		ldr	r3, [r5]
 208 008e 9A42     		cmp	r2, r3
 209 0090 65D1     		bne	.L24
 210 0092 0023     		movs	r3, #0
 211 0094 1A46     		mov	r2, r3
 212 0096 1946     		mov	r1, r3
 213 0098 0320     		movs	r0, #3
 214              		.loc 2 107 0
 215 009a 05B0     		add	sp, sp, #20
 216              		.cfi_remember_state
 217              		.cfi_def_cfa_offset 12
 218              		@ sp needed
 219 009c BDE83040 		pop	{r4, r5, lr}
 220              		.cfi_restore 14
 221              		.cfi_restore 5
 222              		.cfi_restore 4
 223              		.cfi_def_cfa_offset 0
 224              		.loc 2 104 0
 225 00a0 FFF7FEBF 		b	set_rgb_led
 226              	.LVL18:
 227              	.L26:
 228              		.cfi_restore_state
ARM GAS  /var/folders/0b/rh7d8qts4ys3rdpl8xd_0jkm0000gn/T//ccIZEUn5.s 			page 5


 229              		.loc 2 87 0
 230 00a4 0023     		movs	r3, #0
 231 00a6 1A46     		mov	r2, r3
 232 00a8 1846     		mov	r0, r3
 233 00aa 6421     		movs	r1, #100
 234 00ac FFF7FEFF 		bl	set_rgb_led
 235              	.LVL19:
 236              		.loc 2 88 0
 237 00b0 0023     		movs	r3, #0
 238 00b2 1A46     		mov	r2, r3
 239 00b4 6421     		movs	r1, #100
 240 00b6 0120     		movs	r0, #1
 241 00b8 FFF7FEFF 		bl	set_rgb_led
 242              	.LVL20:
 243              		.loc 2 89 0
 244 00bc 0023     		movs	r3, #0
 245 00be 1A46     		mov	r2, r3
 246 00c0 6421     		movs	r1, #100
 247 00c2 0220     		movs	r0, #2
 248 00c4 FFF7FEFF 		bl	set_rgb_led
 249              	.LVL21:
 250              		.loc 2 90 0
 251 00c8 039A     		ldr	r2, [sp, #12]
 252 00ca 2B68     		ldr	r3, [r5]
 253 00cc 9A42     		cmp	r2, r3
 254 00ce 46D1     		bne	.L24
 255 00d0 0023     		movs	r3, #0
 256 00d2 1A46     		mov	r2, r3
 257 00d4 6421     		movs	r1, #100
 258              		.loc 2 104 0
 259 00d6 0320     		movs	r0, #3
 260              		.loc 2 107 0
 261 00d8 05B0     		add	sp, sp, #20
 262              		.cfi_remember_state
 263              		.cfi_def_cfa_offset 12
 264              		@ sp needed
 265 00da BDE83040 		pop	{r4, r5, lr}
 266              		.cfi_restore 14
 267              		.cfi_restore 5
 268              		.cfi_restore 4
 269              		.cfi_def_cfa_offset 0
 270              		.loc 2 104 0
 271 00de FFF7FEBF 		b	set_rgb_led
 272              	.LVL22:
 273              	.L25:
 274              		.cfi_restore_state
 275              		.loc 2 80 0
 276 00e2 0023     		movs	r3, #0
 277 00e4 1946     		mov	r1, r3
 278 00e6 1846     		mov	r0, r3
 279 00e8 6422     		movs	r2, #100
 280 00ea FFF7FEFF 		bl	set_rgb_led
 281              	.LVL23:
 282              		.loc 2 81 0
 283 00ee 0023     		movs	r3, #0
 284 00f0 1946     		mov	r1, r3
 285 00f2 6422     		movs	r2, #100
ARM GAS  /var/folders/0b/rh7d8qts4ys3rdpl8xd_0jkm0000gn/T//ccIZEUn5.s 			page 6


 286 00f4 0120     		movs	r0, #1
 287 00f6 FFF7FEFF 		bl	set_rgb_led
 288              	.LVL24:
 289              		.loc 2 82 0
 290 00fa 0023     		movs	r3, #0
 291 00fc 1946     		mov	r1, r3
 292 00fe 6422     		movs	r2, #100
 293 0100 0220     		movs	r0, #2
 294 0102 FFF7FEFF 		bl	set_rgb_led
 295              	.LVL25:
 296              		.loc 2 83 0
 297 0106 039A     		ldr	r2, [sp, #12]
 298 0108 2B68     		ldr	r3, [r5]
 299 010a 9A42     		cmp	r2, r3
 300 010c 27D1     		bne	.L24
 301 010e 0023     		movs	r3, #0
 302 0110 1946     		mov	r1, r3
 303 0112 6422     		movs	r2, #100
 304              		.loc 2 104 0
 305 0114 0320     		movs	r0, #3
 306              		.loc 2 107 0
 307 0116 05B0     		add	sp, sp, #20
 308              		.cfi_remember_state
 309              		.cfi_def_cfa_offset 12
 310              		@ sp needed
 311 0118 BDE83040 		pop	{r4, r5, lr}
 312              		.cfi_restore 14
 313              		.cfi_restore 5
 314              		.cfi_restore 4
 315              		.cfi_def_cfa_offset 0
 316              		.loc 2 104 0
 317 011c FFF7FEBF 		b	set_rgb_led
 318              	.LVL26:
 319              	.L27:
 320              		.cfi_restore_state
 321              		.loc 2 94 0
 322 0120 0022     		movs	r2, #0
 323 0122 1146     		mov	r1, r2
 324 0124 1046     		mov	r0, r2
 325 0126 6423     		movs	r3, #100
 326 0128 FFF7FEFF 		bl	set_rgb_led
 327              	.LVL27:
 328              		.loc 2 95 0
 329 012c 0022     		movs	r2, #0
 330 012e 1146     		mov	r1, r2
 331 0130 6423     		movs	r3, #100
 332 0132 0120     		movs	r0, #1
 333 0134 FFF7FEFF 		bl	set_rgb_led
 334              	.LVL28:
 335              		.loc 2 96 0
 336 0138 0022     		movs	r2, #0
 337 013a 1146     		mov	r1, r2
 338 013c 6423     		movs	r3, #100
 339 013e 0220     		movs	r0, #2
 340 0140 FFF7FEFF 		bl	set_rgb_led
 341              	.LVL29:
 342              		.loc 2 97 0
ARM GAS  /var/folders/0b/rh7d8qts4ys3rdpl8xd_0jkm0000gn/T//ccIZEUn5.s 			page 7


 343 0144 039A     		ldr	r2, [sp, #12]
 344 0146 2B68     		ldr	r3, [r5]
 345 0148 9A42     		cmp	r2, r3
 346 014a 08D1     		bne	.L24
 347 014c 0022     		movs	r2, #0
 348 014e 1146     		mov	r1, r2
 349 0150 6423     		movs	r3, #100
 350              		.loc 2 104 0
 351 0152 0320     		movs	r0, #3
 352              		.loc 2 107 0
 353 0154 05B0     		add	sp, sp, #20
 354              		.cfi_remember_state
 355              		.cfi_def_cfa_offset 12
 356              		@ sp needed
 357 0156 BDE83040 		pop	{r4, r5, lr}
 358              		.cfi_restore 14
 359              		.cfi_restore 5
 360              		.cfi_restore 4
 361              		.cfi_def_cfa_offset 0
 362              		.loc 2 104 0
 363 015a FFF7FEBF 		b	set_rgb_led
 364              	.LVL30:
 365              	.L24:
 366              		.cfi_restore_state
 367 015e FFF7FEFF 		bl	__stack_chk_fail
 368              	.LVL31:
 369              	.L29:
 370 0162 00BF     		.align	2
 371              	.L28:
 372 0164 00000000 		.word	__stack_chk_guard
 373 0168 00401C46 		.word	1176256512
 374 016c 00000000 		.word	.LC0
 375 0170 00000000 		.word	SD3
 376              		.cfi_endproc
 377              	.LFE290:
 378              		.size	sound_remote, .-sound_remote
 379              		.section	.text.processAudioData,"ax",%progbits
 380              		.align	1
 381              		.p2align 4,,15
 382              		.global	processAudioData
 383              		.syntax unified
 384              		.thumb
 385              		.thumb_func
 386              		.fpu fpv4-sp-d16
 387              		.type	processAudioData, %function
 388              	processAudioData:
 389              	.LFB291:
 390              		.loc 2 118 0
 391              		.cfi_startproc
 392              		@ args = 0, pretend = 0, frame = 8
 393              		@ frame_needed = 0, uses_anonymous_args = 0
 394              	.LVL32:
 395 0000 2DE9F04F 		push	{r4, r5, r6, r7, r8, r9, r10, fp, lr}
 396              		.cfi_def_cfa_offset 36
 397              		.cfi_offset 4, -36
 398              		.cfi_offset 5, -32
 399              		.cfi_offset 6, -28
ARM GAS  /var/folders/0b/rh7d8qts4ys3rdpl8xd_0jkm0000gn/T//ccIZEUn5.s 			page 8


 400              		.cfi_offset 7, -24
 401              		.cfi_offset 8, -20
 402              		.cfi_offset 9, -16
 403              		.cfi_offset 10, -12
 404              		.cfi_offset 11, -8
 405              		.cfi_offset 14, -4
 406 0004 684E     		ldr	r6, .L47
 407 0006 694F     		ldr	r7, .L47+4
 408 0008 3368     		ldr	r3, [r6]
 409 000a 3A88     		ldrh	r2, [r7]
 410 000c 83B0     		sub	sp, sp, #12
 411              		.cfi_def_cfa_offset 48
 412              		.loc 2 118 0
 413 000e 0193     		str	r3, [sp, #4]
 414              	.LVL33:
 415              	.LBB46:
 416              		.loc 2 132 0
 417 0010 0029     		cmp	r1, #0
 418 0012 00F09380 		beq	.L31
 419 0016 DFF89C91 		ldr	r9, .L47+12
 420 001a DFF8A081 		ldr	r8, .L47+20
 421 001e DFF8A4E1 		ldr	lr, .L47+28
 422 0022 DFF89CC1 		ldr	ip, .L47+24
 423              		.loc 2 141 0
 424 0026 DFED627A 		vldr.32	s15, .L47+8
 425              		.loc 2 132 0
 426 002a 0025     		movs	r5, #0
 427 002c 04E0     		b	.L34
 428              	.LVL34:
 429              	.L32:
 430              		.loc 2 132 0 is_stmt 0 discriminator 2
 431 002e 0435     		adds	r5, r5, #4
 432              	.LVL35:
 433 0030 ADB2     		uxth	r5, r5
 434              	.LVL36:
 435 0032 A942     		cmp	r1, r5
 436 0034 40F2B580 		bls	.L45
 437              	.LVL37:
 438              	.L34:
 439              		.loc 2 134 0 is_stmt 1
 440 0038 30F91530 		ldrsh	r3, [r0, r5, lsl #1]
 441 003c 07EE103A 		vmov	s14, r3	@ int
 442 0040 9400     		lsls	r4, r2, #2
 443 0042 B8EEC77A 		vcvt.f32.s32	s14, s14
 444 0046 09EB040A 		add	r10, r9, r4
 445              		.loc 2 135 0
 446 004a 00EB4503 		add	r3, r0, r5, lsl #1
 447              		.loc 2 134 0
 448 004e 8AED007A 		vstr.32	s14, [r10]
 449              		.loc 2 135 0
 450 0052 B3F902A0 		ldrsh	r10, [r3, #2]
 451 0056 07EE10AA 		vmov	s14, r10	@ int
 452 005a B8EEC77A 		vcvt.f32.s32	s14, s14
 453 005e 08EB040A 		add	r10, r8, r4
 454 0062 8AED007A 		vstr.32	s14, [r10]
 455              		.loc 2 136 0
 456 0066 B3F904A0 		ldrsh	r10, [r3, #4]
ARM GAS  /var/folders/0b/rh7d8qts4ys3rdpl8xd_0jkm0000gn/T//ccIZEUn5.s 			page 9


 457 006a 07EE10AA 		vmov	s14, r10	@ int
 458 006e B8EEC77A 		vcvt.f32.s32	s14, s14
 459 0072 0EEB040A 		add	r10, lr, r4
 460 0076 8AED007A 		vstr.32	s14, [r10]
 461              		.loc 2 137 0
 462 007a B3F90630 		ldrsh	r3, [r3, #6]
 463 007e 07EE103A 		vmov	s14, r3	@ int
 464              		.loc 2 141 0
 465 0082 531C     		adds	r3, r2, #1
 466 0084 9BB2     		uxth	r3, r3
 467              		.loc 2 137 0
 468 0086 B8EEC77A 		vcvt.f32.s32	s14, s14
 469              		.loc 2 146 0
 470 008a 0232     		adds	r2, r2, #2
 471              		.loc 2 141 0
 472 008c 9B00     		lsls	r3, r3, #2
 473              		.loc 2 137 0
 474 008e 6444     		add	r4, r4, ip
 475              		.loc 2 146 0
 476 0090 92B2     		uxth	r2, r2
 477              		.loc 2 137 0
 478 0092 84ED007A 		vstr.32	s14, [r4]
 479              		.loc 2 141 0
 480 0096 09EB030B 		add	fp, r9, r3
 481              		.loc 2 142 0
 482 009a 08EB030A 		add	r10, r8, r3
 483              		.loc 2 143 0
 484 009e 0EEB0304 		add	r4, lr, r3
 485              		.loc 2 149 0
 486 00a2 B2F5006F 		cmp	r2, #2048
 487              		.loc 2 144 0
 488 00a6 6344     		add	r3, r3, ip
 489              		.loc 2 141 0
 490 00a8 CBED007A 		vstr.32	s15, [fp]
 491              		.loc 2 142 0
 492 00ac CAED007A 		vstr.32	s15, [r10]
 493              		.loc 2 143 0
 494 00b0 C4ED007A 		vstr.32	s15, [r4]
 495              		.loc 2 144 0
 496 00b4 C3ED007A 		vstr.32	s15, [r3]
 497              		.loc 2 149 0
 498 00b8 B9D3     		bcc	.L32
 499 00ba 3A80     		strh	r2, [r7]	@ movhi
 500              	.LVL38:
 501              	.L33:
 502              	.LBE46:
 503              		.loc 2 161 0
 504 00bc 3D49     		ldr	r1, .L47+12
 505              	.LVL39:
 506              		.loc 2 180 0
 507 00be 3E4C     		ldr	r4, .L47+16
 508              		.loc 2 161 0
 509 00c0 4FF48060 		mov	r0, #1024
 510              	.LVL40:
 511 00c4 FFF7FEFF 		bl	doFFT_optimized
 512              	.LVL41:
 513              		.loc 2 162 0
ARM GAS  /var/folders/0b/rh7d8qts4ys3rdpl8xd_0jkm0000gn/T//ccIZEUn5.s 			page 10


 514 00c8 3C49     		ldr	r1, .L47+20
 515 00ca 4FF48060 		mov	r0, #1024
 516 00ce FFF7FEFF 		bl	doFFT_optimized
 517              	.LVL42:
 518              		.loc 2 163 0
 519 00d2 3B49     		ldr	r1, .L47+24
 520 00d4 4FF48060 		mov	r0, #1024
 521 00d8 FFF7FEFF 		bl	doFFT_optimized
 522              	.LVL43:
 523              		.loc 2 164 0
 524 00dc 3949     		ldr	r1, .L47+28
 525 00de 4FF48060 		mov	r0, #1024
 526 00e2 FFF7FEFF 		bl	doFFT_optimized
 527              	.LVL44:
 528              		.loc 2 173 0
 529 00e6 4FF48062 		mov	r2, #1024
 530 00ea 3749     		ldr	r1, .L47+32
 531 00ec 3148     		ldr	r0, .L47+12
 532 00ee FFF7FEFF 		bl	arm_cmplx_mag_f32
 533              	.LVL45:
 534              		.loc 2 174 0
 535 00f2 4FF48062 		mov	r2, #1024
 536 00f6 3549     		ldr	r1, .L47+36
 537 00f8 3048     		ldr	r0, .L47+20
 538 00fa FFF7FEFF 		bl	arm_cmplx_mag_f32
 539              	.LVL46:
 540              		.loc 2 175 0
 541 00fe 4FF48062 		mov	r2, #1024
 542 0102 3349     		ldr	r1, .L47+40
 543 0104 2E48     		ldr	r0, .L47+24
 544 0106 FFF7FEFF 		bl	arm_cmplx_mag_f32
 545              	.LVL47:
 546              		.loc 2 176 0
 547 010a 4FF48062 		mov	r2, #1024
 548 010e 3149     		ldr	r1, .L47+44
 549 0110 2C48     		ldr	r0, .L47+28
 550 0112 FFF7FEFF 		bl	arm_cmplx_mag_f32
 551              	.LVL48:
 552              		.loc 2 180 0
 553 0116 2378     		ldrb	r3, [r4]	@ zero_extendqisi2
 554 0118 082B     		cmp	r3, #8
 555 011a 19D8     		bhi	.L36
 556 011c 0133     		adds	r3, r3, #1
 557 011e DBB2     		uxtb	r3, r3
 558              	.L37:
 559              		.loc 2 188 0
 560 0120 0199     		ldr	r1, [sp, #4]
 561 0122 3268     		ldr	r2, [r6]
 562              		.loc 2 186 0
 563 0124 2370     		strb	r3, [r4]
 564              		.loc 2 188 0
 565 0126 9142     		cmp	r1, r2
 566              		.loc 2 185 0
 567 0128 4FF00003 		mov	r3, #0
 568 012c 3B80     		strh	r3, [r7]	@ movhi
 569              		.loc 2 188 0
 570 012e 36D1     		bne	.L44
ARM GAS  /var/folders/0b/rh7d8qts4ys3rdpl8xd_0jkm0000gn/T//ccIZEUn5.s 			page 11


 571 0130 2648     		ldr	r0, .L47+36
 572              		.loc 2 190 0
 573 0132 03B0     		add	sp, sp, #12
 574              		.cfi_remember_state
 575              		.cfi_def_cfa_offset 36
 576              		@ sp needed
 577 0134 BDE8F04F 		pop	{r4, r5, r6, r7, r8, r9, r10, fp, lr}
 578              		.cfi_restore 14
 579              		.cfi_restore 11
 580              		.cfi_restore 10
 581              		.cfi_restore 9
 582              		.cfi_restore 8
 583              		.cfi_restore 7
 584              		.cfi_restore 6
 585              		.cfi_restore 5
 586              		.cfi_restore 4
 587              		.cfi_def_cfa_offset 0
 588              		.loc 2 188 0
 589 0138 FFF7FEBF 		b	sound_remote
 590              	.LVL49:
 591              	.L31:
 592              		.cfi_restore_state
 593              		.loc 2 154 0
 594 013c B2F5006F 		cmp	r2, #2048
 595 0140 BCD2     		bcs	.L33
 596              	.LVL50:
 597              	.L30:
 598              		.loc 2 190 0
 599 0142 019A     		ldr	r2, [sp, #4]
 600 0144 3368     		ldr	r3, [r6]
 601 0146 9A42     		cmp	r2, r3
 602 0148 29D1     		bne	.L44
 603 014a 03B0     		add	sp, sp, #12
 604              		.cfi_remember_state
 605              		.cfi_def_cfa_offset 36
 606              		@ sp needed
 607 014c BDE8F08F 		pop	{r4, r5, r6, r7, r8, r9, r10, fp, pc}
 608              	.LVL51:
 609              	.L36:
 610              		.cfi_restore_state
 611              	.LBB47:
 612              	.LBB48:
 613              	.LBB49:
 614              	.LBB50:
 615              	.LBB51:
 616              	.LBB52:
 617              	.LBB53:
 618              		.file 3 "../../lib/e-puck2_main-processor/ChibiOS//os/ext/CMSIS/include/core_cmFunc.h"
 619              		.loc 3 546 0
 620 0150 2023     		movs	r3, #32
 621              		.syntax unified
 622              	@ 546 "../../lib/e-puck2_main-processor/ChibiOS//os/ext/CMSIS/include/core_cmFunc.h" 1
 623 0152 83F31188 		MSR basepri, r3
 624              	@ 0 "" 2
 625              	.LVL52:
 626              		.thumb
 627              		.syntax unified
ARM GAS  /var/folders/0b/rh7d8qts4ys3rdpl8xd_0jkm0000gn/T//ccIZEUn5.s 			page 12


 628              	.LBE53:
 629              	.LBE52:
 630              	.LBE51:
 631              		.file 4 "../../lib/e-puck2_main-processor/ChibiOS//os/rt/include/chsys.h"
 632              		.loc 4 349 0
 633 0156 FFF7FEFF 		bl	_stats_start_measure_crit_thd
 634              	.LVL53:
 635              		.loc 4 350 0
 636 015a FFF7FEFF 		bl	_dbg_check_lock
 637              	.LVL54:
 638              	.LBE50:
 639              	.LBE49:
 640              	.LBB54:
 641              	.LBB55:
 642              		.file 5 "../../lib/e-puck2_main-processor/ChibiOS//os/rt/include/chbsem.h"
 643              		.loc 5 268 0
 644 015e FFF7FEFF 		bl	chDbgCheckClassI
 645              	.LVL55:
 646              		.loc 5 270 0
 647 0162 1D48     		ldr	r0, .L47+48
 648 0164 8368     		ldr	r3, [r0, #8]
 649 0166 002B     		cmp	r3, #0
 650 0168 16DD     		ble	.L46
 651              	.L38:
 652              	.LVL56:
 653              	.LBE55:
 654              	.LBE54:
 655              		.loc 5 286 0
 656 016a FFF7FEFF 		bl	chSchRescheduleS
 657              	.LVL57:
 658              	.LBB57:
 659              	.LBB58:
 660              		.loc 4 360 0
 661 016e FFF7FEFF 		bl	_dbg_check_unlock
 662              	.LVL58:
 663              		.loc 4 361 0
 664 0172 FFF7FEFF 		bl	_stats_stop_measure_crit_thd
 665              	.LVL59:
 666              		.loc 4 367 0
 667 0176 194B     		ldr	r3, .L47+52
 668 0178 1A68     		ldr	r2, [r3]
 669 017a 9A42     		cmp	r2, r3
 670 017c 07D0     		beq	.L39
 671 017e 9969     		ldr	r1, [r3, #24]
 672 0180 9368     		ldr	r3, [r2, #8]
 673 0182 8A68     		ldr	r2, [r1, #8]
 674 0184 9A42     		cmp	r2, r3
 675 0186 02D2     		bcs	.L39
 676 0188 1548     		ldr	r0, .L47+56
 677 018a FFF7FEFF 		bl	chSysHalt
 678              	.LVL60:
 679              	.L39:
 680              	.LBB59:
 681              	.LBB60:
 682              	.LBB61:
 683              		.loc 3 546 0
 684 018e 0023     		movs	r3, #0
ARM GAS  /var/folders/0b/rh7d8qts4ys3rdpl8xd_0jkm0000gn/T//ccIZEUn5.s 			page 13


 685              		.syntax unified
 686              	@ 546 "../../lib/e-puck2_main-processor/ChibiOS//os/ext/CMSIS/include/core_cmFunc.h" 1
 687 0190 83F31188 		MSR basepri, r3
 688              	@ 0 "" 2
 689              	.LVL61:
 690              		.thumb
 691              		.syntax unified
 692 0194 0123     		movs	r3, #1
 693 0196 C3E7     		b	.L37
 694              	.LVL62:
 695              	.L46:
 696              	.LBE61:
 697              	.LBE60:
 698              	.LBE59:
 699              	.LBE58:
 700              	.LBE57:
 701              	.LBB62:
 702              	.LBB56:
 703              		.loc 5 271 0
 704 0198 FFF7FEFF 		bl	chSemSignalI
 705              	.LVL63:
 706 019c E5E7     		b	.L38
 707              	.LVL64:
 708              	.L44:
 709              	.LBE56:
 710              	.LBE62:
 711              	.LBE48:
 712              	.LBE47:
 713              		.loc 2 190 0
 714 019e FFF7FEFF 		bl	__stack_chk_fail
 715              	.LVL65:
 716              	.L45:
 717 01a2 3A80     		strh	r2, [r7]	@ movhi
 718 01a4 CDE7     		b	.L30
 719              	.L48:
 720 01a6 00BF     		.align	2
 721              	.L47:
 722 01a8 00000000 		.word	__stack_chk_guard
 723 01ac 00000000 		.word	.LANCHOR0
 724 01b0 00000000 		.word	0
 725 01b4 00000000 		.word	micRight_cmplx_input
 726 01b8 00000000 		.word	.LANCHOR1
 727 01bc 00000000 		.word	micLeft_cmplx_input
 728 01c0 00000000 		.word	micFront_cmplx_input
 729 01c4 00000000 		.word	micBack_cmplx_input
 730 01c8 00000000 		.word	micRight_output
 731 01cc 00000000 		.word	micLeft_output
 732 01d0 00000000 		.word	micFront_output
 733 01d4 00000000 		.word	micBack_output
 734 01d8 00000000 		.word	.LANCHOR2
 735 01dc 00000000 		.word	ch
 736 01e0 00000000 		.word	.LANCHOR3
 737              		.cfi_endproc
 738              	.LFE291:
 739              		.size	processAudioData, .-processAudioData
 740              		.section	.text.wait_send_to_computer,"ax",%progbits
 741              		.align	1
ARM GAS  /var/folders/0b/rh7d8qts4ys3rdpl8xd_0jkm0000gn/T//ccIZEUn5.s 			page 14


 742              		.p2align 4,,15
 743              		.global	wait_send_to_computer
 744              		.syntax unified
 745              		.thumb
 746              		.thumb_func
 747              		.fpu fpv4-sp-d16
 748              		.type	wait_send_to_computer, %function
 749              	wait_send_to_computer:
 750              	.LFB292:
 751              		.loc 2 192 0
 752              		.cfi_startproc
 753              		@ args = 0, pretend = 0, frame = 8
 754              		@ frame_needed = 0, uses_anonymous_args = 0
 755 0000 00B5     		push	{lr}
 756              		.cfi_def_cfa_offset 4
 757              		.cfi_offset 14, -4
 758 0002 084B     		ldr	r3, .L54
 759 0004 83B0     		sub	sp, sp, #12
 760              		.cfi_def_cfa_offset 16
 761              		.loc 2 192 0
 762 0006 1A68     		ldr	r2, [r3]
 763 0008 0192     		str	r2, [sp, #4]
 764              	.LVL66:
 765              	.LBB63:
 766              	.LBB64:
 767              		.loc 5 143 0
 768 000a 019A     		ldr	r2, [sp, #4]
 769 000c 1B68     		ldr	r3, [r3]
 770 000e 9A42     		cmp	r2, r3
 771 0010 05D1     		bne	.L53
 772 0012 0548     		ldr	r0, .L54+4
 773              	.LBE64:
 774              	.LBE63:
 775              		.loc 2 194 0
 776 0014 03B0     		add	sp, sp, #12
 777              		.cfi_remember_state
 778              		.cfi_def_cfa_offset 4
 779              		@ sp needed
 780 0016 5DF804EB 		ldr	lr, [sp], #4
 781              		.cfi_restore 14
 782              		.cfi_def_cfa_offset 0
 783              	.LBB66:
 784              	.LBB65:
 785              		.loc 5 143 0
 786 001a FFF7FEBF 		b	chSemWait
 787              	.LVL67:
 788              	.L53:
 789              		.cfi_restore_state
 790 001e FFF7FEFF 		bl	__stack_chk_fail
 791              	.LVL68:
 792              	.L55:
 793 0022 00BF     		.align	2
 794              	.L54:
 795 0024 00000000 		.word	__stack_chk_guard
 796 0028 00000000 		.word	.LANCHOR2
 797              	.LBE65:
 798              	.LBE66:
ARM GAS  /var/folders/0b/rh7d8qts4ys3rdpl8xd_0jkm0000gn/T//ccIZEUn5.s 			page 15


 799              		.cfi_endproc
 800              	.LFE292:
 801              		.size	wait_send_to_computer, .-wait_send_to_computer
 802              		.section	.text.get_audio_buffer_ptr,"ax",%progbits
 803              		.align	1
 804              		.p2align 4,,15
 805              		.global	get_audio_buffer_ptr
 806              		.syntax unified
 807              		.thumb
 808              		.thumb_func
 809              		.fpu fpv4-sp-d16
 810              		.type	get_audio_buffer_ptr, %function
 811              	get_audio_buffer_ptr:
 812              	.LFB293:
 813              		.loc 2 196 0
 814              		.cfi_startproc
 815              		@ args = 0, pretend = 0, frame = 8
 816              		@ frame_needed = 0, uses_anonymous_args = 0
 817              	.LVL69:
 818 0000 00B5     		push	{lr}
 819              		.cfi_def_cfa_offset 4
 820              		.cfi_offset 14, -4
 821 0002 164B     		ldr	r3, .L69
 822 0004 83B0     		sub	sp, sp, #12
 823              		.cfi_def_cfa_offset 16
 824              		.loc 2 196 0
 825 0006 1A68     		ldr	r2, [r3]
 826 0008 0192     		str	r2, [sp, #4]
 827              		.loc 2 197 0
 828 000a 88B1     		cbz	r0, .L59
 829              		.loc 2 200 0
 830 000c 0128     		cmp	r0, #1
 831 000e 17D0     		beq	.L60
 832              		.loc 2 203 0
 833 0010 0228     		cmp	r0, #2
 834 0012 19D0     		beq	.L61
 835              		.loc 2 206 0
 836 0014 0328     		cmp	r0, #3
 837 0016 15D0     		beq	.L62
 838              		.loc 2 209 0
 839 0018 0428     		cmp	r0, #4
 840 001a 17D0     		beq	.L63
 841              		.loc 2 212 0
 842 001c 0528     		cmp	r0, #5
 843 001e 17D0     		beq	.L64
 844              		.loc 2 215 0
 845 0020 0628     		cmp	r0, #6
 846 0022 17D0     		beq	.L65
 847              		.loc 2 222 0
 848 0024 0E4A     		ldr	r2, .L69+4
 849              		.loc 2 218 0
 850 0026 0728     		cmp	r0, #7
 851              		.loc 2 222 0
 852 0028 0CBF     		ite	eq
 853 002a 1046     		moveq	r0, r2
 854              	.LVL70:
 855 002c 0020     		movne	r0, #0
ARM GAS  /var/folders/0b/rh7d8qts4ys3rdpl8xd_0jkm0000gn/T//ccIZEUn5.s 			page 16


 856 002e 00E0     		b	.L56
 857              	.LVL71:
 858              	.L59:
 859              		.loc 2 198 0
 860 0030 0C48     		ldr	r0, .L69+8
 861              	.LVL72:
 862              	.L56:
 863              		.loc 2 224 0
 864 0032 019A     		ldr	r2, [sp, #4]
 865 0034 1B68     		ldr	r3, [r3]
 866 0036 9A42     		cmp	r2, r3
 867 0038 0ED1     		bne	.L68
 868 003a 03B0     		add	sp, sp, #12
 869              		.cfi_remember_state
 870              		.cfi_def_cfa_offset 4
 871              		@ sp needed
 872 003c 5DF804FB 		ldr	pc, [sp], #4
 873              	.LVL73:
 874              	.L60:
 875              		.cfi_restore_state
 876              		.loc 2 201 0
 877 0040 0948     		ldr	r0, .L69+12
 878              	.LVL74:
 879 0042 F6E7     		b	.L56
 880              	.LVL75:
 881              	.L62:
 882              		.loc 2 207 0
 883 0044 0948     		ldr	r0, .L69+16
 884              	.LVL76:
 885 0046 F4E7     		b	.L56
 886              	.LVL77:
 887              	.L61:
 888              		.loc 2 204 0
 889 0048 0948     		ldr	r0, .L69+20
 890              	.LVL78:
 891 004a F2E7     		b	.L56
 892              	.LVL79:
 893              	.L63:
 894              		.loc 2 210 0
 895 004c 0948     		ldr	r0, .L69+24
 896              	.LVL80:
 897 004e F0E7     		b	.L56
 898              	.LVL81:
 899              	.L64:
 900              		.loc 2 213 0
 901 0050 0948     		ldr	r0, .L69+28
 902              	.LVL82:
 903 0052 EEE7     		b	.L56
 904              	.LVL83:
 905              	.L65:
 906              		.loc 2 216 0
 907 0054 0948     		ldr	r0, .L69+32
 908              	.LVL84:
 909 0056 ECE7     		b	.L56
 910              	.L68:
 911              		.loc 2 224 0
 912 0058 FFF7FEFF 		bl	__stack_chk_fail
ARM GAS  /var/folders/0b/rh7d8qts4ys3rdpl8xd_0jkm0000gn/T//ccIZEUn5.s 			page 17


 913              	.LVL85:
 914              	.L70:
 915              		.align	2
 916              	.L69:
 917 005c 00000000 		.word	__stack_chk_guard
 918 0060 00000000 		.word	micBack_output
 919 0064 00000000 		.word	micLeft_cmplx_input
 920 0068 00000000 		.word	micRight_cmplx_input
 921 006c 00000000 		.word	micBack_cmplx_input
 922 0070 00000000 		.word	micFront_cmplx_input
 923 0074 00000000 		.word	micLeft_output
 924 0078 00000000 		.word	micRight_output
 925 007c 00000000 		.word	micFront_output
 926              		.cfi_endproc
 927              	.LFE293:
 928              		.size	get_audio_buffer_ptr, .-get_audio_buffer_ptr
 929              		.section	.bss.micBack_cmplx_input,"aw",%nobits
 930              		.align	2
 931              		.type	micBack_cmplx_input, %object
 932              		.size	micBack_cmplx_input, 8192
 933              	micBack_cmplx_input:
 934 0000 00000000 		.space	8192
 934      00000000 
 934      00000000 
 934      00000000 
 934      00000000 
 935              		.section	.bss.micBack_output,"aw",%nobits
 936              		.align	2
 937              		.type	micBack_output, %object
 938              		.size	micBack_output, 4096
 939              	micBack_output:
 940 0000 00000000 		.space	4096
 940      00000000 
 940      00000000 
 940      00000000 
 940      00000000 
 941              		.section	.bss.micFront_cmplx_input,"aw",%nobits
 942              		.align	2
 943              		.type	micFront_cmplx_input, %object
 944              		.size	micFront_cmplx_input, 8192
 945              	micFront_cmplx_input:
 946 0000 00000000 		.space	8192
 946      00000000 
 946      00000000 
 946      00000000 
 946      00000000 
 947              		.section	.bss.micFront_output,"aw",%nobits
 948              		.align	2
 949              		.type	micFront_output, %object
 950              		.size	micFront_output, 4096
 951              	micFront_output:
 952 0000 00000000 		.space	4096
 952      00000000 
 952      00000000 
 952      00000000 
 952      00000000 
 953              		.section	.bss.micLeft_cmplx_input,"aw",%nobits
ARM GAS  /var/folders/0b/rh7d8qts4ys3rdpl8xd_0jkm0000gn/T//ccIZEUn5.s 			page 18


 954              		.align	2
 955              		.type	micLeft_cmplx_input, %object
 956              		.size	micLeft_cmplx_input, 8192
 957              	micLeft_cmplx_input:
 958 0000 00000000 		.space	8192
 958      00000000 
 958      00000000 
 958      00000000 
 958      00000000 
 959              		.section	.bss.micLeft_output,"aw",%nobits
 960              		.align	2
 961              		.type	micLeft_output, %object
 962              		.size	micLeft_output, 4096
 963              	micLeft_output:
 964 0000 00000000 		.space	4096
 964      00000000 
 964      00000000 
 964      00000000 
 964      00000000 
 965              		.section	.bss.micRight_cmplx_input,"aw",%nobits
 966              		.align	2
 967              		.type	micRight_cmplx_input, %object
 968              		.size	micRight_cmplx_input, 8192
 969              	micRight_cmplx_input:
 970 0000 00000000 		.space	8192
 970      00000000 
 970      00000000 
 970      00000000 
 970      00000000 
 971              		.section	.bss.micRight_output,"aw",%nobits
 972              		.align	2
 973              		.type	micRight_output, %object
 974              		.size	micRight_output, 4096
 975              	micRight_output:
 976 0000 00000000 		.space	4096
 976      00000000 
 976      00000000 
 976      00000000 
 976      00000000 
 977              		.section	.bss.mustSend.14222,"aw",%nobits
 978              		.set	.LANCHOR1,. + 0
 979              		.type	mustSend.14222, %object
 980              		.size	mustSend.14222, 1
 981              	mustSend.14222:
 982 0000 00       		.space	1
 983              		.section	.bss.nb_samples.14221,"aw",%nobits
 984              		.align	1
 985              		.set	.LANCHOR0,. + 0
 986              		.type	nb_samples.14221, %object
 987              		.size	nb_samples.14221, 2
 988              	nb_samples.14221:
 989 0000 0000     		.space	2
 990              		.section	.data.sendToComputer_sem,"aw",%progbits
 991              		.align	2
 992              		.set	.LANCHOR2,. + 0
 993              		.type	sendToComputer_sem, %object
 994              		.size	sendToComputer_sem, 12
ARM GAS  /var/folders/0b/rh7d8qts4ys3rdpl8xd_0jkm0000gn/T//ccIZEUn5.s 			page 19


 995              	sendToComputer_sem:
 996 0000 00000000 		.word	sendToComputer_sem
 997 0004 00000000 		.word	sendToComputer_sem
 998 0008 00000000 		.word	0
 999              		.section	.rodata.__func__.7153,"a",%progbits
 1000              		.align	2
 1001              		.set	.LANCHOR3,. + 0
 1002              		.type	__func__.7153, %object
 1003              		.size	__func__.7153, 12
 1004              	__func__.7153:
 1005 0000 63685379 		.ascii	"chSysUnlock\000"
 1005      73556E6C 
 1005      6F636B00 
 1006              		.section	.rodata.chprintf.constprop.0.str1.4,"aMS",%progbits,1
 1007              		.align	2
 1008              	.LC0:
 1009 0000 6D617820 		.ascii	"max norm %d e vale %f\015\012\012\000"
 1009      6E6F726D 
 1009      20256420 
 1009      65207661 
 1009      6C652025 
 1010              		.text
 1011              	.Letext0:
 1012              		.file 6 "/Applications/Eclipse_e-puck2.app/Contents/Eclipse_e-puck2/Tools/gcc-arm-none-eabi-7-2017
 1013              		.file 7 "/Applications/Eclipse_e-puck2.app/Contents/Eclipse_e-puck2/Tools/gcc-arm-none-eabi-7-2017
 1014              		.file 8 "/Applications/Eclipse_e-puck2.app/Contents/Eclipse_e-puck2/Tools/gcc-arm-none-eabi-7-2017
 1015              		.file 9 "../../lib/e-puck2_main-processor/ChibiOS//os/rt/ports/ARMCMx/compilers/GCC/chtypes.h"
 1016              		.file 10 "../../lib/e-puck2_main-processor/ChibiOS//os/rt/include/chsystypes.h"
 1017              		.file 11 "../../lib/e-puck2_main-processor/ChibiOS//os/rt/include/chschd.h"
 1018              		.file 12 "../../lib/e-puck2_main-processor/ChibiOS//os/ext/CMSIS/include/core_cm4.h"
 1019              		.file 13 "../../lib/e-puck2_main-processor/ChibiOS//os/ext/CMSIS/ST/system_stm32f4xx.h"
 1020              		.file 14 "../../lib/e-puck2_main-processor/ChibiOS//os/ext/CMSIS/ST/stm32f407xx.h"
 1021              		.file 15 "../../lib/e-puck2_main-processor/ChibiOS//os/rt/ports/ARMCMx/chcore.h"
 1022              		.file 16 "../../lib/e-puck2_main-processor/ChibiOS//os/rt/ports/ARMCMx/chcore_v7m.h"
 1023              		.file 17 "../../lib/e-puck2_main-processor/ChibiOS//os/rt/include/chdebug.h"
 1024              		.file 18 "../../lib/e-puck2_main-processor/ChibiOS//os/rt/include/chtm.h"
 1025              		.file 19 "../../lib/e-puck2_main-processor/ChibiOS//os/rt/include/chstats.h"
 1026              		.file 20 "../../lib/e-puck2_main-processor/ChibiOS//os/rt/include/chsem.h"
 1027              		.file 21 "../../lib/e-puck2_main-processor/ChibiOS//os/rt/include/chmtx.h"
 1028              		.file 22 "../../lib/e-puck2_main-processor/ChibiOS//os/rt/include/chregistry.h"
 1029              		.file 23 "../../lib/e-puck2_main-processor/ChibiOS//os/rt/include/chevents.h"
 1030              		.file 24 "../../lib/e-puck2_main-processor/ChibiOS//os/rt/include/chqueues.h"
 1031              		.file 25 "../../lib/e-puck2_main-processor/ChibiOS//os/rt/include/chstreams.h"
 1032              		.file 26 "../../lib/e-puck2_main-processor/ChibiOS//os/hal/ports/STM32/STM32F4xx/stm32_dma.h"
 1033              		.file 27 "../../lib/e-puck2_main-processor/ChibiOS//os/hal/include/hal_ioblock.h"
 1034              		.file 28 "../../lib/e-puck2_main-processor/ChibiOS//os/hal/ports/STM32/LLD/GPIOv2/pal_lld.h"
 1035              		.file 29 "../../lib/e-puck2_main-processor/ChibiOS//os/hal/include/adc.h"
 1036              		.file 30 "../../lib/e-puck2_main-processor/ChibiOS//os/hal/ports/STM32/STM32F4xx/adc_lld.h"
 1037              		.file 31 "../../lib/e-puck2_main-processor/ChibiOS//os/hal/include/can.h"
 1038              		.file 32 "../../lib/e-puck2_main-processor/ChibiOS//os/hal/ports/STM32/LLD/can_lld.h"
 1039              		.file 33 "../../lib/e-puck2_main-processor/ChibiOS//os/hal/include/dac.h"
 1040              		.file 34 "../../lib/e-puck2_main-processor/ChibiOS//os/hal/ports/STM32/LLD/DACv1/dac_lld.h"
 1041              		.file 35 "../../lib/e-puck2_main-processor/ChibiOS//os/hal/include/ext.h"
 1042              		.file 36 "../../lib/e-puck2_main-processor/ChibiOS//os/hal/ports/STM32/LLD/ext_lld.h"
 1043              		.file 37 "../../lib/e-puck2_main-processor/ChibiOS//os/hal/include/gpt.h"
 1044              		.file 38 "../../lib/e-puck2_main-processor/ChibiOS//os/hal/ports/STM32/LLD/TIMv1/gpt_lld.h"
 1045              		.file 39 "../../lib/e-puck2_main-processor/ChibiOS//os/hal/ports/STM32/LLD/TIMv1/stm32_tim.h"
ARM GAS  /var/folders/0b/rh7d8qts4ys3rdpl8xd_0jkm0000gn/T//ccIZEUn5.s 			page 20


 1046              		.file 40 "../../lib/e-puck2_main-processor/ChibiOS//os/hal/include/i2c.h"
 1047              		.file 41 "../../lib/e-puck2_main-processor/ChibiOS//os/hal/ports/STM32/LLD/I2Cv1/i2c_lld.h"
 1048              		.file 42 "../../lib/e-puck2_main-processor/ChibiOS//os/hal/include/i2s.h"
 1049              		.file 43 "../../lib/e-puck2_main-processor/ChibiOS//os/hal/ports/STM32/LLD/SPIv1/i2s_lld.h"
 1050              		.file 44 "../../lib/e-puck2_main-processor/ChibiOS//os/hal/include/pwm.h"
 1051              		.file 45 "../../lib/e-puck2_main-processor/ChibiOS//os/hal/ports/STM32/LLD/TIMv1/pwm_lld.h"
 1052              		.file 46 "../../lib/e-puck2_main-processor/ChibiOS//os/hal/include/serial.h"
 1053              		.file 47 "../../lib/e-puck2_main-processor/ChibiOS//os/hal/ports/STM32/LLD/USARTv1/serial_lld.h"
 1054              		.file 48 "../../lib/e-puck2_main-processor/ChibiOS//os/hal/include/sdc.h"
 1055              		.file 49 "../../lib/e-puck2_main-processor/ChibiOS//os/hal/ports/STM32/LLD/sdc_lld.h"
 1056              		.file 50 "../../lib/e-puck2_main-processor/ChibiOS//os/hal/include/spi.h"
 1057              		.file 51 "../../lib/e-puck2_main-processor/ChibiOS//os/hal/ports/STM32/LLD/SPIv1/spi_lld.h"
 1058              		.file 52 "../../lib/e-puck2_main-processor/ChibiOS//os/hal/include/usb.h"
 1059              		.file 53 "../../lib/e-puck2_main-processor/ChibiOS//os/hal/ports/STM32/LLD/OTGv1/usb_lld.h"
 1060              		.file 54 "../../lib/e-puck2_main-processor/ChibiOS//os/hal/ports/STM32/LLD/OTGv1/stm32_otg.h"
 1061              		.file 55 "../../lib/e-puck2_main-processor/ChibiOS//os/hal/include/serial_usb.h"
 1062              		.file 56 "../../lib/e-puck2_main-processor/ChibiOS_ext/os/hal/include/../ports/STM32/STM32F4xx/dcm
 1063              		.file 57 "/Applications/Eclipse_e-puck2.app/Contents/Eclipse_e-puck2/Tools/gcc-arm-none-eabi-7-201
 1064              		.file 58 "/Applications/Eclipse_e-puck2.app/Contents/Eclipse_e-puck2/Tools/gcc-arm-none-eabi-7-201
 1065              		.file 59 "<built-in>"
 1066              		.file 60 "/Applications/Eclipse_e-puck2.app/Contents/Eclipse_e-puck2/Tools/gcc-arm-none-eabi-7-201
 1067              		.file 61 "../../lib/e-puck2_main-processor/src/msgbus/messagebus.h"
 1068              		.file 62 "/Applications/Eclipse_e-puck2.app/Contents/Eclipse_e-puck2/Tools/gcc-arm-none-eabi-7-201
 1069              		.file 63 "/Applications/Eclipse_e-puck2.app/Contents/Eclipse_e-puck2/Tools/gcc-arm-none-eabi-7-201
 1070              		.file 64 "../../lib/e-puck2_main-processor/src/parameter/parameter.h"
 1071              		.file 65 "./main.h"
 1072              		.file 66 "../../lib/e-puck2_main-processor/src/usbcfg.h"
 1073              		.file 67 "/Applications/Eclipse_e-puck2.app/Contents/Eclipse_e-puck2/Tools/gcc-arm-none-eabi-7-201
 1074              		.file 68 "./audio_processing.h"
 1075              		.file 69 "/Applications/Eclipse_e-puck2.app/Contents/Eclipse_e-puck2/Tools/gcc-arm-none-eabi-7-201
 1076              		.file 70 "../../lib/e-puck2_main-processor/src/leds.h"
 1077              		.file 71 "./fft.h"
 1078              		.file 72 "../../lib/e-puck2_main-processor/ChibiOS//os/ext/CMSIS/include/arm_math.h"