ARM GAS  /var/folders/0b/rh7d8qts4ys3rdpl8xd_0jkm0000gn/T//cchQMnny.s 			page 1


   1              		.cpu cortex-m4
   2              		.eabi_attribute 27, 1
   3              		.eabi_attribute 28, 1
   4              		.eabi_attribute 20, 1
   5              		.eabi_attribute 21, 1
   6              		.eabi_attribute 23, 3
   7              		.eabi_attribute 24, 1
   8              		.eabi_attribute 25, 1
   9              		.eabi_attribute 26, 1
  10              		.eabi_attribute 30, 2
  11              		.eabi_attribute 34, 1
  12              		.eabi_attribute 18, 4
  13              		.file	"main.c"
  14              		.text
  15              	.Ltext0:
  16              		.cfi_sections	.debug_frame
  17              		.section	.text.chprintf.constprop.0,"ax",%progbits
  18              		.align	1
  19              		.p2align 4,,15
  20              		.syntax unified
  21              		.thumb
  22              		.thumb_func
  23              		.fpu fpv4-sp-d16
  24              		.type	chprintf.constprop.0, %function
  25              	chprintf.constprop.0:
  26              	.LFB267:
  27              		.file 1 "../../lib/e-puck2_main-processor/ChibiOS//os/hal/lib/streams/chprintf.h"
  28              		.loc 1 69 0
  29              		.cfi_startproc
  30              		@ args = 4, pretend = 12, frame = 8
  31              		@ frame_needed = 0, uses_anonymous_args = 1
  32              	.LVL0:
  33 0000 0EB4     		push	{r1, r2, r3}
  34              		.cfi_def_cfa_offset 12
  35              		.cfi_offset 1, -12
  36              		.cfi_offset 2, -8
  37              		.cfi_offset 3, -4
  38 0002 10B5     		push	{r4, lr}
  39              		.cfi_def_cfa_offset 20
  40              		.cfi_offset 4, -20
  41              		.cfi_offset 14, -16
  42 0004 83B0     		sub	sp, sp, #12
  43              		.cfi_def_cfa_offset 32
  44              		.loc 1 69 0
  45 0006 05AA     		add	r2, sp, #20
  46 0008 094C     		ldr	r4, .L6
  47 000a 52F8041B 		ldr	r1, [r2], #4
  48 000e 2368     		ldr	r3, [r4]
  49              		.loc 1 74 0
  50 0010 0848     		ldr	r0, .L6+4
  51              	.LVL1:
  52              		.loc 1 73 0
  53 0012 0092     		str	r2, [sp]
  54              		.loc 1 69 0
  55 0014 0193     		str	r3, [sp, #4]
  56              	.LVL2:
  57              		.loc 1 74 0
ARM GAS  /var/folders/0b/rh7d8qts4ys3rdpl8xd_0jkm0000gn/T//cchQMnny.s 			page 2


  58 0016 FFF7FEFF 		bl	chvprintf
  59              	.LVL3:
  60              		.loc 1 78 0
  61 001a 019A     		ldr	r2, [sp, #4]
  62 001c 2368     		ldr	r3, [r4]
  63 001e 9A42     		cmp	r2, r3
  64 0020 04D1     		bne	.L5
  65 0022 03B0     		add	sp, sp, #12
  66              		.cfi_remember_state
  67              		.cfi_def_cfa_offset 20
  68              		@ sp needed
  69 0024 BDE81040 		pop	{r4, lr}
  70              		.cfi_restore 14
  71              		.cfi_restore 4
  72              		.cfi_def_cfa_offset 12
  73 0028 03B0     		add	sp, sp, #12
  74              		.cfi_restore 3
  75              		.cfi_restore 2
  76              		.cfi_restore 1
  77              		.cfi_def_cfa_offset 0
  78 002a 7047     		bx	lr
  79              	.L5:
  80              		.cfi_restore_state
  81 002c FFF7FEFF 		bl	__stack_chk_fail
  82              	.LVL4:
  83              	.L7:
  84              		.align	2
  85              	.L6:
  86 0030 00000000 		.word	__stack_chk_guard
  87 0034 00000000 		.word	SD3
  88              		.cfi_endproc
  89              	.LFE267:
  90              		.size	chprintf.constprop.0, .-chprintf.constprop.0
  91              		.section	.text.SendUint8ToComputer,"ax",%progbits
  92              		.align	1
  93              		.p2align 4,,15
  94              		.global	SendUint8ToComputer
  95              		.syntax unified
  96              		.thumb
  97              		.thumb_func
  98              		.fpu fpv4-sp-d16
  99              		.type	SendUint8ToComputer, %function
 100              	SendUint8ToComputer:
 101              	.LFB260:
 102              		.file 2 "main.c"
 103              		.loc 2 33 0
 104              		.cfi_startproc
 105              		@ args = 0, pretend = 0, frame = 16
 106              		@ frame_needed = 0, uses_anonymous_args = 0
 107              	.LVL5:
 108 0000 70B5     		push	{r4, r5, r6, lr}
 109              		.cfi_def_cfa_offset 16
 110              		.cfi_offset 4, -16
 111              		.cfi_offset 5, -12
 112              		.cfi_offset 6, -8
 113              		.cfi_offset 14, -4
 114              		.loc 2 34 0
ARM GAS  /var/folders/0b/rh7d8qts4ys3rdpl8xd_0jkm0000gn/T//cchQMnny.s 			page 3


 115 0002 124C     		ldr	r4, .L12
 116              		.loc 2 33 0
 117 0004 124D     		ldr	r5, .L12+4
 118              		.loc 2 34 0
 119 0006 2368     		ldr	r3, [r4]
 120              		.loc 2 33 0
 121 0008 2A68     		ldr	r2, [r5]
 122 000a 84B0     		sub	sp, sp, #16
 123              		.cfi_def_cfa_offset 32
 124              		.loc 2 33 0
 125 000c 0646     		mov	r6, r0
 126 000e ADF80610 		strh	r1, [sp, #6]	@ movhi
 127              		.loc 2 34 0
 128 0012 1B68     		ldr	r3, [r3]
 129 0014 0F49     		ldr	r1, .L12+8
 130              	.LVL6:
 131              		.loc 2 33 0
 132 0016 0392     		str	r2, [sp, #12]
 133              		.loc 2 34 0
 134 0018 2046     		mov	r0, r4
 135              	.LVL7:
 136 001a 0522     		movs	r2, #5
 137 001c 9847     		blx	r3
 138              	.LVL8:
 139              		.loc 2 35 0
 140 001e 2368     		ldr	r3, [r4]
 141 0020 0222     		movs	r2, #2
 142 0022 1B68     		ldr	r3, [r3]
 143 0024 0DF10601 		add	r1, sp, #6
 144 0028 2046     		mov	r0, r4
 145 002a 9847     		blx	r3
 146              	.LVL9:
 147              		.loc 2 36 0
 148 002c 2368     		ldr	r3, [r4]
 149 002e BDF80620 		ldrh	r2, [sp, #6]
 150 0032 1B68     		ldr	r3, [r3]
 151 0034 3146     		mov	r1, r6
 152 0036 2046     		mov	r0, r4
 153 0038 9847     		blx	r3
 154              	.LVL10:
 155              		.loc 2 37 0
 156 003a 039A     		ldr	r2, [sp, #12]
 157 003c 2B68     		ldr	r3, [r5]
 158 003e 9A42     		cmp	r2, r3
 159 0040 01D1     		bne	.L11
 160 0042 04B0     		add	sp, sp, #16
 161              		.cfi_remember_state
 162              		.cfi_def_cfa_offset 16
 163              		@ sp needed
 164 0044 70BD     		pop	{r4, r5, r6, pc}
 165              	.LVL11:
 166              	.L11:
 167              		.cfi_restore_state
 168 0046 FFF7FEFF 		bl	__stack_chk_fail
 169              	.LVL12:
 170              	.L13:
 171 004a 00BF     		.align	2
ARM GAS  /var/folders/0b/rh7d8qts4ys3rdpl8xd_0jkm0000gn/T//cchQMnny.s 			page 4


 172              	.L12:
 173 004c 00000000 		.word	SD3
 174 0050 00000000 		.word	__stack_chk_guard
 175 0054 00000000 		.word	.LC0
 176              		.cfi_endproc
 177              	.LFE260:
 178              		.size	SendUint8ToComputer, .-SendUint8ToComputer
 179              		.section	.text.retrieve_TOF_measure,"ax",%progbits
 180              		.align	1
 181              		.p2align 4,,15
 182              		.global	retrieve_TOF_measure
 183              		.syntax unified
 184              		.thumb
 185              		.thumb_func
 186              		.fpu fpv4-sp-d16
 187              		.type	retrieve_TOF_measure, %function
 188              	retrieve_TOF_measure:
 189              	.LFB262:
 190              		.loc 2 51 0
 191              		.cfi_startproc
 192              		@ args = 0, pretend = 0, frame = 8
 193              		@ frame_needed = 0, uses_anonymous_args = 0
 194              	.LVL13:
 195 0000 F0B5     		push	{r4, r5, r6, r7, lr}
 196              		.cfi_def_cfa_offset 20
 197              		.cfi_offset 4, -20
 198              		.cfi_offset 5, -16
 199              		.cfi_offset 6, -12
 200              		.cfi_offset 7, -8
 201              		.cfi_offset 14, -4
 202 0002 0F4F     		ldr	r7, .L22
 203 0004 83B0     		sub	sp, sp, #12
 204              		.cfi_def_cfa_offset 32
 205              		.loc 2 51 0
 206 0006 3B68     		ldr	r3, [r7]
 207 0008 0193     		str	r3, [sp, #4]
 208              	.LVL14:
 209              	.LBB4:
 210              		.loc 2 53 0
 211 000a 0E46     		mov	r6, r1
 212 000c A1B1     		cbz	r1, .L18
 213 000e 0025     		movs	r5, #0
 214              	.LBE4:
 215              		.loc 2 52 0
 216 0010 2C46     		mov	r4, r5
 217              	.LVL15:
 218              	.L16:
 219              	.LBB5:
 220              		.loc 2 54 0 discriminator 3
 221 0012 9620     		movs	r0, #150
 222 0014 FFF7FEFF 		bl	chThdSleep
 223              	.LVL16:
 224              		.loc 2 55 0 discriminator 3
 225 0018 FFF7FEFF 		bl	VL53L0X_get_dist_mm
 226              	.LVL17:
 227              		.loc 2 53 0 discriminator 3
 228 001c 0135     		adds	r5, r5, #1
ARM GAS  /var/folders/0b/rh7d8qts4ys3rdpl8xd_0jkm0000gn/T//cchQMnny.s 			page 5


 229              	.LVL18:
 230              		.loc 2 55 0 discriminator 3
 231 001e 0444     		add	r4, r4, r0
 232              	.LVL19:
 233              		.loc 2 53 0 discriminator 3
 234 0020 B542     		cmp	r5, r6
 235              		.loc 2 55 0 discriminator 3
 236 0022 A4B2     		uxth	r4, r4
 237              	.LVL20:
 238              		.loc 2 53 0 discriminator 3
 239 0024 F5D1     		bne	.L16
 240 0026 94FBF5F4 		sdiv	r4, r4, r5
 241              	.LVL21:
 242 002a A0B2     		uxth	r0, r4
 243              	.LVL22:
 244              	.L15:
 245              	.LBE5:
 246              		.loc 2 59 0
 247 002c 019A     		ldr	r2, [sp, #4]
 248 002e 3B68     		ldr	r3, [r7]
 249 0030 9A42     		cmp	r2, r3
 250 0032 03D1     		bne	.L21
 251 0034 03B0     		add	sp, sp, #12
 252              		.cfi_remember_state
 253              		.cfi_def_cfa_offset 20
 254              		@ sp needed
 255 0036 F0BD     		pop	{r4, r5, r6, r7, pc}
 256              	.LVL23:
 257              	.L18:
 258              		.cfi_restore_state
 259              	.LBB6:
 260              		.loc 2 53 0
 261 0038 0846     		mov	r0, r1
 262 003a F7E7     		b	.L15
 263              	.LVL24:
 264              	.L21:
 265              	.LBE6:
 266              		.loc 2 59 0
 267 003c FFF7FEFF 		bl	__stack_chk_fail
 268              	.LVL25:
 269              	.L23:
 270              		.align	2
 271              	.L22:
 272 0040 00000000 		.word	__stack_chk_guard
 273              		.cfi_endproc
 274              	.LFE262:
 275              		.size	retrieve_TOF_measure, .-retrieve_TOF_measure
 276              		.section	.text.adjust_orientation,"ax",%progbits
 277              		.align	1
 278              		.p2align 4,,15
 279              		.global	adjust_orientation
 280              		.syntax unified
 281              		.thumb
 282              		.thumb_func
 283              		.fpu fpv4-sp-d16
 284              		.type	adjust_orientation, %function
 285              	adjust_orientation:
ARM GAS  /var/folders/0b/rh7d8qts4ys3rdpl8xd_0jkm0000gn/T//cchQMnny.s 			page 6


 286              	.LFB263:
 287              		.loc 2 61 0
 288              		.cfi_startproc
 289              		@ args = 0, pretend = 0, frame = 8
 290              		@ frame_needed = 0, uses_anonymous_args = 0
 291 0000 2DE9F04F 		push	{r4, r5, r6, r7, r8, r9, r10, fp, lr}
 292              		.cfi_def_cfa_offset 36
 293              		.cfi_offset 4, -36
 294              		.cfi_offset 5, -32
 295              		.cfi_offset 6, -28
 296              		.cfi_offset 7, -24
 297              		.cfi_offset 8, -20
 298              		.cfi_offset 9, -16
 299              		.cfi_offset 10, -12
 300              		.cfi_offset 11, -8
 301              		.cfi_offset 14, -4
 302 0004 2A4B     		ldr	r3, .L32
 303              		.loc 2 64 0
 304 0006 DFF8B480 		ldr	r8, .L32+12
 305              		.loc 2 61 0
 306 000a 1B68     		ldr	r3, [r3]
 307              		.loc 2 64 0
 308 000c D8ED020A 		vldr.32	s1, [r8, #8]
 309              		.loc 2 71 0
 310 0010 DFF8ACA0 		ldr	r10, .L32+16
 311 0014 274E     		ldr	r6, .L32+4
 312              		.loc 2 72 0
 313 0016 DFF8AC90 		ldr	r9, .L32+20
 314              		.loc 2 61 0
 315 001a 83B0     		sub	sp, sp, #12
 316              		.cfi_def_cfa_offset 48
 317              		.loc 2 64 0
 318 001c B9EE080A 		vmov.f32	s0, #-6.0e+0
 319              		.loc 2 61 0
 320 0020 0193     		str	r3, [sp, #4]
 321              	.LVL26:
 322              		.loc 2 64 0
 323 0022 FFF7FEFF 		bl	rotate_angle
 324              	.LVL27:
 325              		.loc 2 65 0
 326 0026 0321     		movs	r1, #3
 327 0028 0020     		movs	r0, #0
 328 002a FFF7FEFF 		bl	retrieve_TOF_measure
 329              	.LVL28:
 330              		.loc 2 66 0
 331 002e D8ED020A 		vldr.32	s1, [r8, #8]
 332 0032 B1EE080A 		vmov.f32	s0, #6.0e+0
 333              		.loc 2 65 0
 334 0036 0746     		mov	r7, r0
 335              	.LVL29:
 336              		.loc 2 66 0
 337 0038 FFF7FEFF 		bl	rotate_angle
 338              	.LVL30:
 339              		.loc 2 67 0
 340 003c 0321     		movs	r1, #3
 341 003e 0020     		movs	r0, #0
 342 0040 FFF7FEFF 		bl	retrieve_TOF_measure
ARM GAS  /var/folders/0b/rh7d8qts4ys3rdpl8xd_0jkm0000gn/T//cchQMnny.s 			page 7


 343              	.LVL31:
 344              		.loc 2 63 0
 345 0044 4FF0000B 		mov	fp, #0
 346              		.loc 2 67 0
 347 0048 0446     		mov	r4, r0
 348              	.LVL32:
 349 004a 02E0     		b	.L25
 350              	.LVL33:
 351              	.L29:
 352              		.loc 2 70 0
 353 004c 2746     		mov	r7, r4
 354 004e AB46     		mov	fp, r5
 355              	.LVL34:
 356 0050 2C46     		mov	r4, r5
 357              	.LVL35:
 358              	.L25:
 359              		.loc 2 69 0
 360 0052 D8ED020A 		vldr.32	s1, [r8, #8]
 361 0056 B1EE080A 		vmov.f32	s0, #6.0e+0
 362 005a FFF7FEFF 		bl	rotate_angle
 363              	.LVL36:
 364              		.loc 2 70 0
 365 005e 0321     		movs	r1, #3
 366 0060 5846     		mov	r0, fp
 367 0062 FFF7FEFF 		bl	retrieve_TOF_measure
 368              	.LVL37:
 369              		.loc 2 71 0
 370 0066 3A46     		mov	r2, r7
 371              		.loc 2 70 0
 372 0068 0546     		mov	r5, r0
 373              		.loc 2 71 0
 374 006a 5146     		mov	r1, r10
 375 006c 3046     		mov	r0, r6
 376 006e FFF7FEFF 		bl	chprintf.constprop.0
 377              	.LVL38:
 378              		.loc 2 72 0
 379 0072 2246     		mov	r2, r4
 380 0074 4946     		mov	r1, r9
 381 0076 3046     		mov	r0, r6
 382 0078 FFF7FEFF 		bl	chprintf.constprop.0
 383              	.LVL39:
 384              		.loc 2 73 0
 385 007c 2A46     		mov	r2, r5
 386 007e 0E49     		ldr	r1, .L32+8
 387 0080 3046     		mov	r0, r6
 388 0082 FFF7FEFF 		bl	chprintf.constprop.0
 389              	.LVL40:
 390              		.loc 2 74 0
 391 0086 BC42     		cmp	r4, r7
 392 0088 E0D2     		bcs	.L29
 393              		.loc 2 74 0 is_stmt 0 discriminator 1
 394 008a A542     		cmp	r5, r4
 395 008c DED9     		bls	.L29
 396              		.loc 2 75 0 is_stmt 1
 397 008e D8ED020A 		vldr.32	s1, [r8, #8]
 398 0092 B9EE080A 		vmov.f32	s0, #-6.0e+0
 399 0096 FFF7FEFF 		bl	rotate_angle
ARM GAS  /var/folders/0b/rh7d8qts4ys3rdpl8xd_0jkm0000gn/T//cchQMnny.s 			page 8


 400              	.LVL41:
 401              		.loc 2 88 0
 402 009a 054B     		ldr	r3, .L32
 403 009c 019A     		ldr	r2, [sp, #4]
 404 009e 1B68     		ldr	r3, [r3]
 405 00a0 9A42     		cmp	r2, r3
 406 00a2 2046     		mov	r0, r4
 407 00a4 02D1     		bne	.L31
 408 00a6 03B0     		add	sp, sp, #12
 409              		.cfi_remember_state
 410              		.cfi_def_cfa_offset 36
 411              		@ sp needed
 412 00a8 BDE8F08F 		pop	{r4, r5, r6, r7, r8, r9, r10, fp, pc}
 413              	.LVL42:
 414              	.L31:
 415              		.cfi_restore_state
 416 00ac FFF7FEFF 		bl	__stack_chk_fail
 417              	.LVL43:
 418              	.L33:
 419              		.align	2
 420              	.L32:
 421 00b0 00000000 		.word	__stack_chk_guard
 422 00b4 00000000 		.word	SD3
 423 00b8 18000000 		.word	.LC3
 424 00bc 00000000 		.word	.LANCHOR0
 425 00c0 00000000 		.word	.LC1
 426 00c4 0C000000 		.word	.LC2
 427              		.cfi_endproc
 428              	.LFE263:
 429              		.size	adjust_orientation, .-adjust_orientation
 430              		.global	__aeabi_f2d
 431              		.global	__aeabi_i2d
 432              		.global	__aeabi_dmul
 433              		.global	__aeabi_dadd
 434              		.global	__aeabi_d2f
 435              		.section	.text.move_robot,"ax",%progbits
 436              		.align	1
 437              		.p2align 4,,15
 438              		.global	move_robot
 439              		.syntax unified
 440              		.thumb
 441              		.thumb_func
 442              		.fpu fpv4-sp-d16
 443              		.type	move_robot, %function
 444              	move_robot:
 445              	.LFB264:
 446              		.loc 2 91 0
 447              		.cfi_startproc
 448              		@ args = 0, pretend = 0, frame = 16
 449              		@ frame_needed = 0, uses_anonymous_args = 0
 450              	.LVL44:
 451 0000 2DE9F04F 		push	{r4, r5, r6, r7, r8, r9, r10, fp, lr}
 452              		.cfi_def_cfa_offset 36
 453              		.cfi_offset 4, -36
 454              		.cfi_offset 5, -32
 455              		.cfi_offset 6, -28
 456              		.cfi_offset 7, -24
ARM GAS  /var/folders/0b/rh7d8qts4ys3rdpl8xd_0jkm0000gn/T//cchQMnny.s 			page 9


 457              		.cfi_offset 8, -20
 458              		.cfi_offset 9, -16
 459              		.cfi_offset 10, -12
 460              		.cfi_offset 11, -8
 461              		.cfi_offset 14, -4
 462 0004 2DED048B 		vpush.64	{d8, d9}
 463              		.cfi_def_cfa_offset 52
 464              		.cfi_offset 80, -52
 465              		.cfi_offset 81, -48
 466              		.cfi_offset 82, -44
 467              		.cfi_offset 83, -40
 468 0008 DFF868B2 		ldr	fp, .L59+48
 469              		.loc 2 93 0
 470 000c 8D4C     		ldr	r4, .L59
 471              		.loc 2 91 0
 472 000e DBF80030 		ldr	r3, [fp]
 473 0012 87B0     		sub	sp, sp, #28
 474              		.cfi_def_cfa_offset 80
 475              		.loc 2 91 0
 476 0014 8246     		mov	r10, r0
 477 0016 0593     		str	r3, [sp, #20]
 478 0018 0F46     		mov	r7, r1
 479              		.loc 2 92 0
 480 001a 0B46     		mov	r3, r1
 481 001c 0246     		mov	r2, r0
 482 001e 8A49     		ldr	r1, .L59+4
 483              	.LVL45:
 484 0020 8A48     		ldr	r0, .L59+8
 485              	.LVL46:
 486              		.loc 2 91 0
 487 0022 F0EE408A 		vmov.f32	s17, s0
 488              		.loc 2 92 0
 489 0026 FFF7FEFF 		bl	chprintf.constprop.0
 490              	.LVL47:
 491              		.loc 2 93 0
 492 002a 2688     		ldrh	r6, [r4]
 493              		.loc 2 94 0
 494 002c 6588     		ldrh	r5, [r4, #2]
 495              		.loc 2 93 0
 496 002e AAEB0606 		sub	r6, r10, r6
 497              		.loc 2 94 0
 498 0032 7D1B     		subs	r5, r7, r5
 499              		.loc 2 93 0
 500 0034 36B2     		sxth	r6, r6
 501              	.LVL48:
 502              		.loc 2 94 0
 503 0036 2DB2     		sxth	r5, r5
 504              	.LVL49:
 505              		.loc 2 97 0
 506 0038 002E     		cmp	r6, #0
 507 003a 40F09E80 		bne	.L35
 508              		.loc 2 97 0 is_stmt 0 discriminator 1
 509 003e 002D     		cmp	r5, #0
 510 0040 65D0     		beq	.L56
 511              	.LVL50:
 512              		.loc 2 101 0 is_stmt 1
 513 0042 07EE905A 		vmov	s15, r5	@ int
ARM GAS  /var/folders/0b/rh7d8qts4ys3rdpl8xd_0jkm0000gn/T//cchQMnny.s 			page 10


 514              		.loc 2 99 0
 515 0046 9FED820A 		vldr.32	s0, .L59+12
 516              		.loc 2 101 0
 517 004a F8EEE77A 		vcvt.f32.s32	s15, s15
 518 004e 87EE800A 		vdiv.f32	s0, s15, s0
 519 0052 FFF7FEFF 		bl	atanf
 520              	.LVL51:
 521 0056 DFED7F7A 		vldr.32	s15, .L59+16
 522 005a 9FED7F7A 		vldr.32	s14, .L59+20
 523 005e 20EE270A 		vmul.f32	s0, s0, s15
 524 0062 80EE078A 		vdiv.f32	s16, s0, s14
 525              	.LVL52:
 526              		.loc 2 102 0
 527 0066 18EE100A 		vmov	r0, s16
 528 006a FFF7FEFF 		bl	__aeabi_f2d
 529              	.LVL53:
 530 006e 0246     		mov	r2, r0
 531 0070 0B46     		mov	r3, r1
 532 0072 7648     		ldr	r0, .L59+8
 533 0074 7949     		ldr	r1, .L59+24
 534 0076 FFF7FEFF 		bl	chprintf.constprop.0
 535              	.LVL54:
 536              		.loc 2 103 0
 537 007a D4ED027A 		vldr.32	s15, [r4, #8]
 538 007e 78EE677A 		vsub.f32	s15, s16, s15
 539 0082 17EE900A 		vmov	r0, s15
 540 0086 FFF7FEFF 		bl	__aeabi_f2d
 541              	.LVL55:
 542 008a 0246     		mov	r2, r0
 543 008c 0B46     		mov	r3, r1
 544 008e 6F48     		ldr	r0, .L59+8
 545 0090 7349     		ldr	r1, .L59+28
 546 0092 FFF7FEFF 		bl	chprintf.constprop.0
 547              	.LVL56:
 548 0096 D4ED020A 		vldr.32	s1, [r4, #8]
 549              		.loc 2 109 0
 550 009a 002F     		cmp	r7, #0
 551 009c 40F0A880 		bne	.L42
 552              		.loc 2 112 0
 553 00a0 9FED700A 		vldr.32	s0, .L59+32
 554 00a4 30EE600A 		vsub.f32	s0, s0, s1
 555 00a8 FFF7FEFF 		bl	rotate_angle
 556              	.LVL57:
 557 00ac 84ED020A 		vstr.32	s0, [r4, #8]
 558              	.L40:
 559              		.loc 2 120 0
 560 00b0 3046     		mov	r0, r6
 561 00b2 FFF7FEFF 		bl	__aeabi_i2d
 562              	.LVL58:
 563 00b6 8046     		mov	r8, r0
 564 00b8 2846     		mov	r0, r5
 565 00ba 8946     		mov	r9, r1
 566 00bc FFF7FEFF 		bl	__aeabi_i2d
 567              	.LVL59:
 568 00c0 4246     		mov	r2, r8
 569 00c2 CDE90201 		strd	r0, [sp, #8]
 570 00c6 4B46     		mov	r3, r9
ARM GAS  /var/folders/0b/rh7d8qts4ys3rdpl8xd_0jkm0000gn/T//cchQMnny.s 			page 11


 571 00c8 4046     		mov	r0, r8
 572 00ca 4946     		mov	r1, r9
 573 00cc FFF7FEFF 		bl	__aeabi_dmul
 574              	.LVL60:
 575 00d0 DDE90223 		ldrd	r2, [sp, #8]
 576 00d4 8046     		mov	r8, r0
 577 00d6 8946     		mov	r9, r1
 578 00d8 1046     		mov	r0, r2
 579 00da 1946     		mov	r1, r3
 580 00dc FFF7FEFF 		bl	__aeabi_dmul
 581              	.LVL61:
 582 00e0 0246     		mov	r2, r0
 583 00e2 0B46     		mov	r3, r1
 584 00e4 4046     		mov	r0, r8
 585 00e6 4946     		mov	r1, r9
 586 00e8 FFF7FEFF 		bl	__aeabi_dadd
 587              	.LVL62:
 588 00ec 41EC100B 		vmov	d0, r0, r1
 589 00f0 FFF7FEFF 		bl	sqrt
 590              	.LVL63:
 591 00f4 51EC100B 		vmov	r0, r1, d0
 592 00f8 FFF7FEFF 		bl	__aeabi_d2f
 593              	.LVL64:
 594              		.loc 2 121 0
 595 00fc 00EE100A 		vmov	s0, r0
 596 0100 FFF7FEFF 		bl	move
 597              	.LVL65:
 598 0104 18EE100A 		vmov	r0, s16
 599 0108 FFF7FEFF 		bl	__aeabi_f2d
 600              	.LVL66:
 601 010c 01E0     		b	.L36
 602              	.LVL67:
 603              	.L56:
 604 010e 0020     		movs	r0, #0
 605 0110 0021     		movs	r1, #0
 606              	.LVL68:
 607              	.L36:
 608              		.loc 2 124 0
 609 0112 2B46     		mov	r3, r5
 610 0114 CDE90001 		strd	r0, [sp]
 611 0118 3246     		mov	r2, r6
 612 011a 5349     		ldr	r1, .L59+36
 613 011c 4B48     		ldr	r0, .L59+8
 614 011e FFF7FEFF 		bl	chprintf.constprop.0
 615              	.LVL69:
 616              		.loc 2 125 0
 617 0122 A068     		ldr	r0, [r4, #8]	@ float
 618 0124 FFF7FEFF 		bl	__aeabi_f2d
 619              	.LVL70:
 620 0128 E388     		ldrh	r3, [r4, #6]
 621 012a A588     		ldrh	r5, [r4, #4]
 622              	.LVL71:
 623 012c 0193     		str	r3, [sp, #4]
 624 012e 0246     		mov	r2, r0
 625 0130 0B46     		mov	r3, r1
 626 0132 0095     		str	r5, [sp]
 627 0134 4D49     		ldr	r1, .L59+40
ARM GAS  /var/folders/0b/rh7d8qts4ys3rdpl8xd_0jkm0000gn/T//cchQMnny.s 			page 12


 628 0136 4548     		ldr	r0, .L59+8
 629 0138 FFF7FEFF 		bl	chprintf.constprop.0
 630              	.LVL72:
 631              		.loc 2 128 0
 632 013c D4ED020A 		vldr.32	s1, [r4, #8]
 633 0140 9FED430A 		vldr.32	s0, .L59+12
 634              		.loc 2 126 0
 635 0144 A4F800A0 		strh	r10, [r4]	@ movhi
 636              		.loc 2 127 0
 637 0148 6780     		strh	r7, [r4, #2]	@ movhi
 638              		.loc 2 128 0
 639 014a FFF7FEFF 		bl	rotate_angle
 640              	.LVL73:
 641 014e F0EE407A 		vmov.f32	s15, s0
 642              		.loc 2 129 0
 643 0152 F0EE670A 		vmov.f32	s1, s15
 644 0156 38EEC00A 		vsub.f32	s0, s17, s0
 645              		.loc 2 128 0
 646 015a C4ED027A 		vstr.32	s15, [r4, #8]
 647              		.loc 2 129 0
 648 015e FFF7FEFF 		bl	rotate_angle
 649              	.LVL74:
 650              		.loc 2 130 0
 651 0162 059A     		ldr	r2, [sp, #20]
 652 0164 DBF80030 		ldr	r3, [fp]
 653              		.loc 2 129 0
 654 0168 84ED020A 		vstr.32	s0, [r4, #8]
 655              		.loc 2 130 0
 656 016c 9A42     		cmp	r2, r3
 657 016e 67D1     		bne	.L57
 658 0170 07B0     		add	sp, sp, #28
 659              		.cfi_remember_state
 660              		.cfi_def_cfa_offset 52
 661              		@ sp needed
 662 0172 BDEC048B 		vldm	sp!, {d8-d9}
 663              		.cfi_restore 82
 664              		.cfi_restore 83
 665              		.cfi_restore 80
 666              		.cfi_restore 81
 667              		.cfi_def_cfa_offset 36
 668 0176 BDE8F08F 		pop	{r4, r5, r6, r7, r8, r9, r10, fp, pc}
 669              	.LVL75:
 670              	.L35:
 671              		.cfi_restore_state
 672              		.loc 2 101 0
 673 017a 07EE905A 		vmov	s15, r5	@ int
 674 017e B8EEE70A 		vcvt.f32.s32	s0, s15
 675 0182 07EE906A 		vmov	s15, r6	@ int
 676 0186 F8EEE77A 		vcvt.f32.s32	s15, s15
 677 018a 9FED329A 		vldr.32	s18, .L59+16
 678 018e 80EE270A 		vdiv.f32	s0, s0, s15
 679 0192 FFF7FEFF 		bl	atanf
 680              	.LVL76:
 681 0196 DFED307A 		vldr.32	s15, .L59+20
 682 019a 20EE090A 		vmul.f32	s0, s0, s18
 683 019e 80EE278A 		vdiv.f32	s16, s0, s15
 684              	.LVL77:
ARM GAS  /var/folders/0b/rh7d8qts4ys3rdpl8xd_0jkm0000gn/T//cchQMnny.s 			page 13


 685              		.loc 2 102 0
 686 01a2 18EE100A 		vmov	r0, s16
 687 01a6 FFF7FEFF 		bl	__aeabi_f2d
 688              	.LVL78:
 689 01aa 0246     		mov	r2, r0
 690 01ac 0B46     		mov	r3, r1
 691 01ae 2748     		ldr	r0, .L59+8
 692 01b0 2A49     		ldr	r1, .L59+24
 693 01b2 FFF7FEFF 		bl	chprintf.constprop.0
 694              	.LVL79:
 695              		.loc 2 103 0
 696 01b6 D4ED027A 		vldr.32	s15, [r4, #8]
 697 01ba 78EE677A 		vsub.f32	s15, s16, s15
 698 01be 17EE900A 		vmov	r0, s15
 699 01c2 FFF7FEFF 		bl	__aeabi_f2d
 700              	.LVL80:
 701 01c6 0246     		mov	r2, r0
 702 01c8 0B46     		mov	r3, r1
 703 01ca 2048     		ldr	r0, .L59+8
 704 01cc 2449     		ldr	r1, .L59+28
 705 01ce FFF7FEFF 		bl	chprintf.constprop.0
 706              	.LVL81:
 707              		.loc 2 104 0
 708 01d2 002E     		cmp	r6, #0
 709 01d4 1EDD     		ble	.L38
 710              		.loc 2 104 0 is_stmt 0 discriminator 1
 711 01d6 55BB     		cbnz	r5, .L58
 712              	.L39:
 713              		.loc 2 116 0 is_stmt 1
 714 01d8 D4ED020A 		vldr.32	s1, [r4, #8]
 715              		.loc 2 115 0
 716 01dc BAF1000F 		cmp	r10, #0
 717 01e0 0FD0     		beq	.L41
 718              		.loc 2 116 0
 719 01e2 B1EE600A 		vneg.f32	s0, s1
 720 01e6 FFF7FEFF 		bl	rotate_angle
 721              	.LVL82:
 722 01ea 84ED020A 		vstr.32	s0, [r4, #8]
 723 01ee 5FE7     		b	.L40
 724              	.L42:
 725              		.loc 2 110 0
 726 01f0 9FED1F0A 		vldr.32	s0, .L59+44
 727 01f4 30EE600A 		vsub.f32	s0, s0, s1
 728 01f8 FFF7FEFF 		bl	rotate_angle
 729              	.LVL83:
 730 01fc 84ED020A 		vstr.32	s0, [r4, #8]
 731 0200 56E7     		b	.L40
 732              	.L41:
 733              		.loc 2 118 0
 734 0202 9FED140A 		vldr.32	s0, .L59+16
 735 0206 30EE600A 		vsub.f32	s0, s0, s1
 736 020a FFF7FEFF 		bl	rotate_angle
 737              	.LVL84:
 738 020e 84ED020A 		vstr.32	s0, [r4, #8]
 739 0212 4DE7     		b	.L40
 740              	.L38:
 741              		.loc 2 106 0 discriminator 1
ARM GAS  /var/folders/0b/rh7d8qts4ys3rdpl8xd_0jkm0000gn/T//cchQMnny.s 			page 14


 742 0214 002D     		cmp	r5, #0
 743 0216 DFD0     		beq	.L39
 744              		.loc 2 107 0
 745 0218 D4ED020A 		vldr.32	s1, [r4, #8]
 746 021c 38EE090A 		vadd.f32	s0, s16, s18
 747 0220 30EE600A 		vsub.f32	s0, s0, s1
 748 0224 FFF7FEFF 		bl	rotate_angle
 749              	.LVL85:
 750 0228 84ED020A 		vstr.32	s0, [r4, #8]
 751 022c 40E7     		b	.L40
 752              	.L58:
 753              		.loc 2 105 0
 754 022e D4ED020A 		vldr.32	s1, [r4, #8]
 755 0232 38EE600A 		vsub.f32	s0, s16, s1
 756 0236 FFF7FEFF 		bl	rotate_angle
 757              	.LVL86:
 758 023a 84ED020A 		vstr.32	s0, [r4, #8]
 759 023e 37E7     		b	.L40
 760              	.LVL87:
 761              	.L57:
 762              		.loc 2 130 0
 763 0240 FFF7FEFF 		bl	__stack_chk_fail
 764              	.LVL88:
 765              	.L60:
 766              		.align	2
 767              	.L59:
 768 0244 00000000 		.word	.LANCHOR0
 769 0248 00000000 		.word	.LC4
 770 024c 00000000 		.word	SD3
 771 0250 00000000 		.word	0
 772 0254 00003443 		.word	1127481344
 773 0258 DB0F4940 		.word	1078530011
 774 025c 24000000 		.word	.LC5
 775 0260 34000000 		.word	.LC6
 776 0264 0000B4C2 		.word	3266576384
 777 0268 54000000 		.word	.LC7
 778 026c 8C000000 		.word	.LC8
 779 0270 0000B442 		.word	1119092736
 780 0274 00000000 		.word	__stack_chk_guard
 781              		.cfi_endproc
 782              	.LFE264:
 783              		.size	move_robot, .-move_robot
 784              		.section	.text.startup.main,"ax",%progbits
 785              		.align	1
 786              		.p2align 4,,15
 787              		.global	main
 788              		.syntax unified
 789              		.thumb
 790              		.thumb_func
 791              		.fpu fpv4-sp-d16
 792              		.type	main, %function
 793              	main:
 794              	.LFB265:
 795              		.loc 2 137 0
 796              		.cfi_startproc
 797              		@ args = 0, pretend = 0, frame = 8
 798              		@ frame_needed = 0, uses_anonymous_args = 0
ARM GAS  /var/folders/0b/rh7d8qts4ys3rdpl8xd_0jkm0000gn/T//cchQMnny.s 			page 15


 799 0000 30B5     		push	{r4, r5, lr}
 800              		.cfi_def_cfa_offset 12
 801              		.cfi_offset 4, -12
 802              		.cfi_offset 5, -8
 803              		.cfi_offset 14, -4
 804 0002 2D4D     		ldr	r5, .L65
 805 0004 83B0     		sub	sp, sp, #12
 806              		.cfi_def_cfa_offset 24
 807              		.loc 2 137 0
 808 0006 2B68     		ldr	r3, [r5]
 809 0008 0193     		str	r3, [sp, #4]
 810              		.loc 2 139 0
 811 000a FFF7FEFF 		bl	halInit
 812              	.LVL89:
 813              		.loc 2 140 0
 814 000e FFF7FEFF 		bl	chSysInit
 815              	.LVL90:
 816              		.loc 2 141 0
 817 0012 FFF7FEFF 		bl	mpu_init
 818              	.LVL91:
 819              	.LBB7:
 820              	.LBB8:
 821              		.loc 2 48 0
 822 0016 2949     		ldr	r1, .L65+4
 823 0018 2948     		ldr	r0, .L65+8
 824 001a FFF7FEFF 		bl	sdStart
 825              	.LVL92:
 826              	.LBE8:
 827              	.LBE7:
 828              		.loc 2 146 0
 829 001e FFF7FEFF 		bl	usb_start
 830              	.LVL93:
 831              		.loc 2 151 0
 832 0022 FFF7FEFF 		bl	motors_init
 833              	.LVL94:
 834              		.loc 2 152 0
 835 0026 FFF7FEFF 		bl	VL53L0X_start
 836              	.LVL95:
 837              		.loc 2 183 0
 838 002a 264B     		ldr	r3, .L65+12
 839              		.loc 2 188 0
 840 002c 9FED260A 		vldr.32	s0, .L65+16
 841              		.loc 2 183 0
 842 0030 0024     		movs	r4, #0
 843 0032 1C60     		str	r4, [r3]
 844              		.loc 2 186 0
 845 0034 C3E90144 		strd	r4, r4, [r3, #4]
 846              		.loc 2 188 0
 847 0038 2146     		mov	r1, r4
 848 003a 2046     		mov	r0, r4
 849 003c FFF7FEFF 		bl	move_robot
 850              	.LVL96:
 851              		.loc 2 189 0
 852 0040 42F21070 		movw	r0, #10000
 853 0044 FFF7FEFF 		bl	chThdSleep
 854              	.LVL97:
 855              		.loc 2 190 0
ARM GAS  /var/folders/0b/rh7d8qts4ys3rdpl8xd_0jkm0000gn/T//cchQMnny.s 			page 16


 856 0048 4FF4C871 		mov	r1, #400
 857 004c 0846     		mov	r0, r1
 858 004e 9FED1E0A 		vldr.32	s0, .L65+16
 859 0052 FFF7FEFF 		bl	move_robot
 860              	.LVL98:
 861              		.loc 2 191 0
 862 0056 42F21070 		movw	r0, #10000
 863 005a FFF7FEFF 		bl	chThdSleep
 864              	.LVL99:
 865              		.loc 2 192 0
 866 005e 9FED1A0A 		vldr.32	s0, .L65+16
 867 0062 4FF4C871 		mov	r1, #400
 868 0066 4FF67060 		movw	r0, #65136
 869 006a FFF7FEFF 		bl	move_robot
 870              	.LVL100:
 871              		.loc 2 193 0
 872 006e 42F21070 		movw	r0, #10000
 873 0072 FFF7FEFF 		bl	chThdSleep
 874              	.LVL101:
 875              		.loc 2 194 0
 876 0076 4FF67061 		movw	r1, #65136
 877 007a 0846     		mov	r0, r1
 878 007c 9FED120A 		vldr.32	s0, .L65+16
 879 0080 FFF7FEFF 		bl	move_robot
 880              	.LVL102:
 881              		.loc 2 195 0
 882 0084 42F21070 		movw	r0, #10000
 883 0088 FFF7FEFF 		bl	chThdSleep
 884              	.LVL103:
 885              		.loc 2 196 0
 886 008c 9FED0E0A 		vldr.32	s0, .L65+16
 887 0090 4FF67061 		movw	r1, #65136
 888 0094 4FF4C870 		mov	r0, #400
 889 0098 FFF7FEFF 		bl	move_robot
 890              	.LVL104:
 891              		.loc 2 197 0
 892 009c 42F21070 		movw	r0, #10000
 893 00a0 FFF7FEFF 		bl	chThdSleep
 894              	.LVL105:
 895              		.loc 2 248 0
 896 00a4 019A     		ldr	r2, [sp, #4]
 897 00a6 2B68     		ldr	r3, [r5]
 898 00a8 9A42     		cmp	r2, r3
 899 00aa 02D1     		bne	.L64
 900 00ac 2046     		mov	r0, r4
 901 00ae 03B0     		add	sp, sp, #12
 902              		.cfi_remember_state
 903              		.cfi_def_cfa_offset 12
 904              		@ sp needed
 905 00b0 30BD     		pop	{r4, r5, pc}
 906              	.L64:
 907              		.cfi_restore_state
 908 00b2 FFF7FEFF 		bl	__stack_chk_fail
 909              	.LVL106:
 910              	.L66:
 911 00b6 00BF     		.align	2
 912              	.L65:
ARM GAS  /var/folders/0b/rh7d8qts4ys3rdpl8xd_0jkm0000gn/T//cchQMnny.s 			page 17


 913 00b8 00000000 		.word	__stack_chk_guard
 914 00bc 00000000 		.word	.LANCHOR1
 915 00c0 00000000 		.word	SD3
 916 00c4 00000000 		.word	.LANCHOR0
 917 00c8 00000000 		.word	0
 918              		.cfi_endproc
 919              	.LFE265:
 920              		.size	main, .-main
 921              		.section	.text.__stack_chk_fail,"ax",%progbits
 922              		.align	1
 923              		.p2align 4,,15
 924              		.global	__stack_chk_fail
 925              		.syntax unified
 926              		.thumb
 927              		.thumb_func
 928              		.fpu fpv4-sp-d16
 929              		.type	__stack_chk_fail, %function
 930              	__stack_chk_fail:
 931              	.LFB266:
 932              		.loc 2 254 0
 933              		.cfi_startproc
 934              		@ args = 0, pretend = 0, frame = 8
 935              		@ frame_needed = 0, uses_anonymous_args = 0
 936 0000 00B5     		push	{lr}
 937              		.cfi_def_cfa_offset 4
 938              		.cfi_offset 14, -4
 939 0002 084B     		ldr	r3, .L72
 940 0004 83B0     		sub	sp, sp, #12
 941              		.cfi_def_cfa_offset 16
 942              		.loc 2 254 0
 943 0006 1A68     		ldr	r2, [r3]
 944 0008 0192     		str	r2, [sp, #4]
 945              		.loc 2 255 0
 946 000a 019A     		ldr	r2, [sp, #4]
 947 000c 1B68     		ldr	r3, [r3]
 948 000e 9A42     		cmp	r2, r3
 949 0010 05D1     		bne	.L71
 950 0012 0548     		ldr	r0, .L72+4
 951              		.loc 2 256 0
 952 0014 03B0     		add	sp, sp, #12
 953              		.cfi_remember_state
 954              		.cfi_def_cfa_offset 4
 955              		@ sp needed
 956 0016 5DF804EB 		ldr	lr, [sp], #4
 957              		.cfi_restore 14
 958              		.cfi_def_cfa_offset 0
 959              		.loc 2 255 0
 960 001a FFF7FEBF 		b	chSysHalt
 961              	.LVL107:
 962              	.L71:
 963              		.cfi_restore_state
 964 001e FFF7FEFF 		bl	__stack_chk_fail
 965              	.LVL108:
 966              	.L73:
 967 0022 00BF     		.align	2
 968              	.L72:
 969 0024 00000000 		.word	__stack_chk_guard
ARM GAS  /var/folders/0b/rh7d8qts4ys3rdpl8xd_0jkm0000gn/T//cchQMnny.s 			page 18


 970 0028 00000000 		.word	.LC9
 971              		.cfi_endproc
 972              	.LFE266:
 973              		.size	__stack_chk_fail, .-__stack_chk_fail
 974              		.global	__stack_chk_guard
 975              		.section	.bss.robot,"aw",%nobits
 976              		.align	2
 977              		.set	.LANCHOR0,. + 0
 978              		.type	robot, %object
 979              		.size	robot, 12
 980              	robot:
 981 0000 00000000 		.space	12
 981      00000000 
 981      00000000 
 982              		.section	.data.__stack_chk_guard,"aw",%progbits
 983              		.align	2
 984              		.type	__stack_chk_guard, %object
 985              		.size	__stack_chk_guard, 4
 986              	__stack_chk_guard:
 987 0000 96E3DEE2 		.word	-488709226
 988              		.section	.data.ser_cfg.14107,"aw",%progbits
 989              		.align	2
 990              		.set	.LANCHOR1,. + 0
 991              		.type	ser_cfg.14107, %object
 992              		.size	ser_cfg.14107, 12
 993              	ser_cfg.14107:
 994 0000 00C20100 		.word	115200
 995 0004 0000     		.short	0
 996 0006 0000     		.short	0
 997 0008 0000     		.short	0
 998 000a 0000     		.space	2
 999              		.section	.rodata.SendUint8ToComputer.str1.4,"aMS",%progbits,1
 1000              		.align	2
 1001              	.LC0:
 1002 0000 53544152 		.ascii	"START\000"
 1002      5400
 1003              		.section	.rodata.__stack_chk_fail.str1.4,"aMS",%progbits,1
 1004              		.align	2
 1005              	.LC9:
 1006 0000 53746163 		.ascii	"Stack smashing detected\000"
 1006      6B20736D 
 1006      61736869 
 1006      6E672064 
 1006      65746563 
 1007              		.section	.rodata.adjust_orientation.str1.4,"aMS",%progbits,1
 1008              		.align	2
 1009              	.LC1:
 1010 0000 70726576 		.ascii	"prev: %d\015\012\012\000"
 1010      3A202564 
 1010      0D0A0A00 
 1011              	.LC2:
 1012 000c 63757272 		.ascii	"curr: %d\015\012\012\000"
 1012      3A202564 
 1012      0D0A0A00 
 1013              	.LC3:
 1014 0018 6E657874 		.ascii	"next: %d\015\012\012\000"
 1014      3A202564 
ARM GAS  /var/folders/0b/rh7d8qts4ys3rdpl8xd_0jkm0000gn/T//cchQMnny.s 			page 19


 1014      0D0A0A00 
 1015              		.section	.rodata.move_robot.str1.4,"aMS",%progbits,1
 1016              		.align	2
 1017              	.LC4:
 1018 0000 64657369 		.ascii	"desired x: %d  desired y: %d\011\015\012\012\000"
 1018      72656420 
 1018      783A2025 
 1018      64202064 
 1018      65736972 
 1019 0021 000000   		.space	3
 1020              	.LC5:
 1021 0024 616E676C 		.ascii	"angle: %f\011\015\012\012\000"
 1021      653A2025 
 1021      66090D0A 
 1021      0A00
 1022 0032 0000     		.space	2
 1023              	.LC6:
 1024 0034 616E676C 		.ascii	"angle-robotorientation: %f\011\015\012\012\000"
 1024      652D726F 
 1024      626F746F 
 1024      7269656E 
 1024      74617469 
 1025 0053 00       		.space	1
 1026              	.LC7:
 1027 0054 494E204D 		.ascii	"IN MOVE ROBOT delta x = %d, delta y = %d, angle: %f"
 1027      4F564520 
 1027      524F424F 
 1027      54206465 
 1027      6C746120 
 1028 0087 090D0A0A 		.ascii	"\011\015\012\012\000"
 1028      00
 1029              	.LC8:
 1030 008c 494E5420 		.ascii	"INT MOVE ROBOT orientation = %f   x = %d    y = %d\000"
 1030      4D4F5645 
 1030      20524F42 
 1030      4F54206F 
 1030      7269656E 
 1031              		.text
 1032              	.Letext0:
 1033              		.file 3 "/Applications/Eclipse_e-puck2.app/Contents/Eclipse_e-puck2/Tools/gcc-arm-none-eabi-7-2017
 1034              		.file 4 "/Applications/Eclipse_e-puck2.app/Contents/Eclipse_e-puck2/Tools/gcc-arm-none-eabi-7-2017
 1035              		.file 5 "/Applications/Eclipse_e-puck2.app/Contents/Eclipse_e-puck2/Tools/gcc-arm-none-eabi-7-2017
 1036              		.file 6 "/Applications/Eclipse_e-puck2.app/Contents/Eclipse_e-puck2/Tools/gcc-arm-none-eabi-7-2017
 1037              		.file 7 "/Applications/Eclipse_e-puck2.app/Contents/Eclipse_e-puck2/Tools/gcc-arm-none-eabi-7-2017
 1038              		.file 8 "/Applications/Eclipse_e-puck2.app/Contents/Eclipse_e-puck2/Tools/gcc-arm-none-eabi-7-2017
 1039              		.file 9 "/Applications/Eclipse_e-puck2.app/Contents/Eclipse_e-puck2/Tools/gcc-arm-none-eabi-7-2017
 1040              		.file 10 "<built-in>"
 1041              		.file 11 "/Applications/Eclipse_e-puck2.app/Contents/Eclipse_e-puck2/Tools/gcc-arm-none-eabi-7-201
 1042              		.file 12 "/Applications/Eclipse_e-puck2.app/Contents/Eclipse_e-puck2/Tools/gcc-arm-none-eabi-7-201
 1043              		.file 13 "/Applications/Eclipse_e-puck2.app/Contents/Eclipse_e-puck2/Tools/gcc-arm-none-eabi-7-201
 1044              		.file 14 "../../lib/e-puck2_main-processor/ChibiOS//os/rt/ports/ARMCMx/compilers/GCC/chtypes.h"
 1045              		.file 15 "../../lib/e-puck2_main-processor/ChibiOS//os/rt/include/chsystypes.h"
 1046              		.file 16 "../../lib/e-puck2_main-processor/ChibiOS//os/rt/include/chschd.h"
 1047              		.file 17 "../../lib/e-puck2_main-processor/ChibiOS//os/ext/CMSIS/include/core_cm4.h"
 1048              		.file 18 "../../lib/e-puck2_main-processor/ChibiOS//os/ext/CMSIS/ST/system_stm32f4xx.h"
 1049              		.file 19 "../../lib/e-puck2_main-processor/ChibiOS//os/ext/CMSIS/ST/stm32f407xx.h"
 1050              		.file 20 "../../lib/e-puck2_main-processor/ChibiOS//os/rt/ports/ARMCMx/chcore.h"
ARM GAS  /var/folders/0b/rh7d8qts4ys3rdpl8xd_0jkm0000gn/T//cchQMnny.s 			page 20


 1051              		.file 21 "../../lib/e-puck2_main-processor/ChibiOS//os/rt/ports/ARMCMx/chcore_v7m.h"
 1052              		.file 22 "../../lib/e-puck2_main-processor/ChibiOS//os/rt/include/chdebug.h"
 1053              		.file 23 "../../lib/e-puck2_main-processor/ChibiOS//os/rt/include/chtm.h"
 1054              		.file 24 "../../lib/e-puck2_main-processor/ChibiOS//os/rt/include/chstats.h"
 1055              		.file 25 "../../lib/e-puck2_main-processor/ChibiOS//os/rt/include/chsem.h"
 1056              		.file 26 "../../lib/e-puck2_main-processor/ChibiOS//os/rt/include/chmtx.h"
 1057              		.file 27 "../../lib/e-puck2_main-processor/ChibiOS//os/rt/include/chregistry.h"
 1058              		.file 28 "../../lib/e-puck2_main-processor/ChibiOS//os/rt/include/chevents.h"
 1059              		.file 29 "../../lib/e-puck2_main-processor/ChibiOS//os/rt/include/chqueues.h"
 1060              		.file 30 "../../lib/e-puck2_main-processor/ChibiOS//os/rt/include/chstreams.h"
 1061              		.file 31 "../../lib/e-puck2_main-processor/ChibiOS//os/hal/ports/STM32/STM32F4xx/stm32_dma.h"
 1062              		.file 32 "../../lib/e-puck2_main-processor/ChibiOS//os/hal/include/hal_ioblock.h"
 1063              		.file 33 "../../lib/e-puck2_main-processor/ChibiOS//os/hal/ports/STM32/LLD/GPIOv2/pal_lld.h"
 1064              		.file 34 "../../lib/e-puck2_main-processor/ChibiOS//os/hal/include/adc.h"
 1065              		.file 35 "../../lib/e-puck2_main-processor/ChibiOS//os/hal/ports/STM32/STM32F4xx/adc_lld.h"
 1066              		.file 36 "../../lib/e-puck2_main-processor/ChibiOS//os/hal/include/can.h"
 1067              		.file 37 "../../lib/e-puck2_main-processor/ChibiOS//os/hal/ports/STM32/LLD/can_lld.h"
 1068              		.file 38 "../../lib/e-puck2_main-processor/ChibiOS//os/hal/include/dac.h"
 1069              		.file 39 "../../lib/e-puck2_main-processor/ChibiOS//os/hal/ports/STM32/LLD/DACv1/dac_lld.h"
 1070              		.file 40 "../../lib/e-puck2_main-processor/ChibiOS//os/hal/include/ext.h"
 1071              		.file 41 "../../lib/e-puck2_main-processor/ChibiOS//os/hal/ports/STM32/LLD/ext_lld.h"
 1072              		.file 42 "../../lib/e-puck2_main-processor/ChibiOS//os/hal/include/gpt.h"
 1073              		.file 43 "../../lib/e-puck2_main-processor/ChibiOS//os/hal/ports/STM32/LLD/TIMv1/gpt_lld.h"
 1074              		.file 44 "../../lib/e-puck2_main-processor/ChibiOS//os/hal/ports/STM32/LLD/TIMv1/stm32_tim.h"
 1075              		.file 45 "../../lib/e-puck2_main-processor/ChibiOS//os/hal/include/i2c.h"
 1076              		.file 46 "../../lib/e-puck2_main-processor/ChibiOS//os/hal/ports/STM32/LLD/I2Cv1/i2c_lld.h"
 1077              		.file 47 "../../lib/e-puck2_main-processor/ChibiOS//os/hal/include/i2s.h"
 1078              		.file 48 "../../lib/e-puck2_main-processor/ChibiOS//os/hal/ports/STM32/LLD/SPIv1/i2s_lld.h"
 1079              		.file 49 "../../lib/e-puck2_main-processor/ChibiOS//os/hal/include/pwm.h"
 1080              		.file 50 "../../lib/e-puck2_main-processor/ChibiOS//os/hal/ports/STM32/LLD/TIMv1/pwm_lld.h"
 1081              		.file 51 "../../lib/e-puck2_main-processor/ChibiOS//os/hal/include/serial.h"
 1082              		.file 52 "../../lib/e-puck2_main-processor/ChibiOS//os/hal/ports/STM32/LLD/USARTv1/serial_lld.h"
 1083              		.file 53 "../../lib/e-puck2_main-processor/ChibiOS//os/hal/include/sdc.h"
 1084              		.file 54 "../../lib/e-puck2_main-processor/ChibiOS//os/hal/ports/STM32/LLD/sdc_lld.h"
 1085              		.file 55 "../../lib/e-puck2_main-processor/ChibiOS//os/hal/include/spi.h"
 1086              		.file 56 "../../lib/e-puck2_main-processor/ChibiOS//os/hal/ports/STM32/LLD/SPIv1/spi_lld.h"
 1087              		.file 57 "../../lib/e-puck2_main-processor/ChibiOS//os/hal/include/usb.h"
 1088              		.file 58 "../../lib/e-puck2_main-processor/ChibiOS//os/hal/ports/STM32/LLD/OTGv1/usb_lld.h"
 1089              		.file 59 "../../lib/e-puck2_main-processor/ChibiOS//os/hal/ports/STM32/LLD/OTGv1/stm32_otg.h"
 1090              		.file 60 "../../lib/e-puck2_main-processor/ChibiOS//os/hal/include/serial_usb.h"
 1091              		.file 61 "../../lib/e-puck2_main-processor/src/usbcfg.h"
 1092              		.file 62 "../../lib/e-puck2_main-processor/ChibiOS_ext/os/hal/include/../ports/STM32/STM32F4xx/dcm
 1093              		.file 63 "/Applications/Eclipse_e-puck2.app/Contents/Eclipse_e-puck2/Tools/gcc-arm-none-eabi-7-201
 1094              		.file 64 "../../lib/e-puck2_main-processor/src/msgbus/messagebus.h"
 1095              		.file 65 "../../lib/e-puck2_main-processor/src/parameter/parameter.h"
 1096              		.file 66 "./main.h"
 1097              		.file 67 "../../lib/e-puck2_main-processor/src/exti.h"
 1098              		.file 68 "../../lib/e-puck2_main-processor/ChibiOS//os/rt/include/chsys.h"
 1099              		.file 69 "../../lib/e-puck2_main-processor/ChibiOS//os/hal/include/hal.h"
 1100              		.file 70 "../../lib/e-puck2_main-processor/src/memory_protection.h"
 1101              		.file 71 "../../lib/e-puck2_main-processor/src/motors.h"
 1102              		.file 72 "../../lib/e-puck2_main-processor/src/sensors/VL53L0X/VL53L0X.h"
 1103              		.file 73 "../../lib/e-puck2_main-processor/ChibiOS//os/rt/include/chthreads.h"