ARM GAS  /var/folders/0b/rh7d8qts4ys3rdpl8xd_0jkm0000gn/T//ccT1yIt8.s 			page 1


   1              		.cpu cortex-m4
   2              		.eabi_attribute 27, 1
   3              		.eabi_attribute 28, 1
   4              		.eabi_attribute 20, 1
   5              		.eabi_attribute 21, 1
   6              		.eabi_attribute 23, 3
   7              		.eabi_attribute 24, 1
   8              		.eabi_attribute 25, 1
   9              		.eabi_attribute 26, 1
  10              		.eabi_attribute 30, 2
  11              		.eabi_attribute 34, 1
  12              		.eabi_attribute 18, 4
  13              		.file	"motors.c"
  14              		.text
  15              	.Ltext0:
  16              		.cfi_sections	.debug_frame
  17              		.section	.text.right_motor_update,"ax",%progbits
  18              		.align	1
  19              		.p2align 4,,15
  20              		.syntax unified
  21              		.thumb
  22              		.thumb_func
  23              		.fpu fpv4-sp-d16
  24              		.type	right_motor_update, %function
  25              	right_motor_update:
  26              	.LFB256:
  27              		.file 1 "../../lib/e-puck2_main-processor/src/motors.c"
  28              		.loc 1 57 0
  29              		.cfi_startproc
  30              		@ args = 0, pretend = 0, frame = 8
  31              		@ frame_needed = 0, uses_anonymous_args = 0
  32              	.LVL0:
  33 0000 00B5     		push	{lr}
  34              		.cfi_def_cfa_offset 4
  35              		.cfi_offset 14, -4
  36 0002 1F4B     		ldr	r3, .L17
  37              		.loc 1 59 0
  38 0004 0278     		ldrb	r2, [r0]	@ zero_extendqisi2
  39              		.loc 1 57 0
  40 0006 1968     		ldr	r1, [r3]
  41 0008 83B0     		sub	sp, sp, #12
  42              		.cfi_def_cfa_offset 16
  43              		.loc 1 57 0
  44 000a 0191     		str	r1, [sp, #4]
  45              		.loc 1 59 0
  46 000c E2B1     		cbz	r2, .L2
  47              		.loc 1 59 0 is_stmt 0 discriminator 1
  48 000e 1D4A     		ldr	r2, .L17+4
  49 0010 4FF40051 		mov	r1, #8192
  50 0014 1183     		strh	r1, [r2, #24]	@ movhi
  51              		.loc 1 60 0 is_stmt 1 discriminator 1
  52 0016 4278     		ldrb	r2, [r0, #1]	@ zero_extendqisi2
  53 0018 EAB1     		cbz	r2, .L4
  54              	.L15:
  55 001a 1A4A     		ldr	r2, .L17+4
  56 001c 4FF48051 		mov	r1, #4096
  57 0020 1183     		strh	r1, [r2, #24]	@ movhi
ARM GAS  /var/folders/0b/rh7d8qts4ys3rdpl8xd_0jkm0000gn/T//ccT1yIt8.s 			page 2


  58              		.loc 1 61 0 discriminator 1
  59 0022 8278     		ldrb	r2, [r0, #2]	@ zero_extendqisi2
  60 0024 F2B1     		cbz	r2, .L6
  61              	.L16:
  62 0026 174A     		ldr	r2, .L17+4
  63 0028 4FF48041 		mov	r1, #16384
  64 002c 1183     		strh	r1, [r2, #24]	@ movhi
  65              		.loc 1 62 0 discriminator 1
  66 002e C278     		ldrb	r2, [r0, #3]	@ zero_extendqisi2
  67 0030 FAB9     		cbnz	r2, .L13
  68              	.L8:
  69              		.loc 1 62 0 is_stmt 0 discriminator 2
  70 0032 144A     		ldr	r2, .L17+4
  71 0034 4FF40041 		mov	r1, #32768
  72 0038 5183     		strh	r1, [r2, #26]	@ movhi
  73              	.L1:
  74              		.loc 1 63 0 is_stmt 1
  75 003a 019A     		ldr	r2, [sp, #4]
  76 003c 1B68     		ldr	r3, [r3]
  77 003e 9A42     		cmp	r2, r3
  78 0040 1CD1     		bne	.L14
  79 0042 03B0     		add	sp, sp, #12
  80              		.cfi_remember_state
  81              		.cfi_def_cfa_offset 4
  82              		@ sp needed
  83 0044 5DF804FB 		ldr	pc, [sp], #4
  84              	.L2:
  85              		.cfi_restore_state
  86              		.loc 1 59 0 discriminator 2
  87 0048 0E4A     		ldr	r2, .L17+4
  88 004a 4FF40051 		mov	r1, #8192
  89 004e 5183     		strh	r1, [r2, #26]	@ movhi
  90              		.loc 1 60 0 discriminator 2
  91 0050 4278     		ldrb	r2, [r0, #1]	@ zero_extendqisi2
  92 0052 002A     		cmp	r2, #0
  93 0054 E1D1     		bne	.L15
  94              	.L4:
  95 0056 0B4A     		ldr	r2, .L17+4
  96 0058 4FF48051 		mov	r1, #4096
  97 005c 5183     		strh	r1, [r2, #26]	@ movhi
  98              		.loc 1 61 0 discriminator 2
  99 005e 8278     		ldrb	r2, [r0, #2]	@ zero_extendqisi2
 100 0060 002A     		cmp	r2, #0
 101 0062 E0D1     		bne	.L16
 102              	.L6:
 103 0064 074A     		ldr	r2, .L17+4
 104 0066 4FF48041 		mov	r1, #16384
 105 006a 5183     		strh	r1, [r2, #26]	@ movhi
 106              		.loc 1 62 0 discriminator 2
 107 006c C278     		ldrb	r2, [r0, #3]	@ zero_extendqisi2
 108 006e 002A     		cmp	r2, #0
 109 0070 DFD0     		beq	.L8
 110              	.L13:
 111              		.loc 1 62 0 is_stmt 0 discriminator 1
 112 0072 044A     		ldr	r2, .L17+4
 113 0074 4FF40041 		mov	r1, #32768
 114 0078 1183     		strh	r1, [r2, #24]	@ movhi
ARM GAS  /var/folders/0b/rh7d8qts4ys3rdpl8xd_0jkm0000gn/T//ccT1yIt8.s 			page 3


 115 007a DEE7     		b	.L1
 116              	.L14:
 117              		.loc 1 63 0 is_stmt 1
 118 007c FFF7FEFF 		bl	__stack_chk_fail
 119              	.LVL1:
 120              	.L18:
 121              		.align	2
 122              	.L17:
 123 0080 00000000 		.word	__stack_chk_guard
 124 0084 00100240 		.word	1073876992
 125              		.cfi_endproc
 126              	.LFE256:
 127              		.size	right_motor_update, .-right_motor_update
 128              		.section	.text.left_motor_update,"ax",%progbits
 129              		.align	1
 130              		.p2align 4,,15
 131              		.syntax unified
 132              		.thumb
 133              		.thumb_func
 134              		.fpu fpv4-sp-d16
 135              		.type	left_motor_update, %function
 136              	left_motor_update:
 137              	.LFB257:
 138              		.loc 1 72 0
 139              		.cfi_startproc
 140              		@ args = 0, pretend = 0, frame = 8
 141              		@ frame_needed = 0, uses_anonymous_args = 0
 142              	.LVL2:
 143 0000 00B5     		push	{lr}
 144              		.cfi_def_cfa_offset 4
 145              		.cfi_offset 14, -4
 146 0002 1F4B     		ldr	r3, .L34
 147              		.loc 1 74 0
 148 0004 0278     		ldrb	r2, [r0]	@ zero_extendqisi2
 149              		.loc 1 72 0
 150 0006 1968     		ldr	r1, [r3]
 151 0008 83B0     		sub	sp, sp, #12
 152              		.cfi_def_cfa_offset 16
 153              		.loc 1 72 0
 154 000a 0191     		str	r1, [sp, #4]
 155              		.loc 1 74 0
 156 000c E2B1     		cbz	r2, .L20
 157              		.loc 1 74 0 is_stmt 0 discriminator 1
 158 000e 1D4A     		ldr	r2, .L34+4
 159 0010 4FF40071 		mov	r1, #512
 160 0014 1183     		strh	r1, [r2, #24]	@ movhi
 161              		.loc 1 75 0 is_stmt 1 discriminator 1
 162 0016 4278     		ldrb	r2, [r0, #1]	@ zero_extendqisi2
 163 0018 EAB1     		cbz	r2, .L22
 164              	.L32:
 165 001a 1A4A     		ldr	r2, .L34+4
 166 001c 4FF48071 		mov	r1, #256
 167 0020 1183     		strh	r1, [r2, #24]	@ movhi
 168              		.loc 1 76 0 discriminator 1
 169 0022 8278     		ldrb	r2, [r0, #2]	@ zero_extendqisi2
 170 0024 F2B1     		cbz	r2, .L24
 171              	.L33:
ARM GAS  /var/folders/0b/rh7d8qts4ys3rdpl8xd_0jkm0000gn/T//ccT1yIt8.s 			page 4


 172 0026 174A     		ldr	r2, .L34+4
 173 0028 4FF40061 		mov	r1, #2048
 174 002c 1183     		strh	r1, [r2, #24]	@ movhi
 175              		.loc 1 77 0 discriminator 1
 176 002e C278     		ldrb	r2, [r0, #3]	@ zero_extendqisi2
 177 0030 FAB9     		cbnz	r2, .L30
 178              	.L26:
 179              		.loc 1 77 0 is_stmt 0 discriminator 2
 180 0032 144A     		ldr	r2, .L34+4
 181 0034 4FF48061 		mov	r1, #1024
 182 0038 5183     		strh	r1, [r2, #26]	@ movhi
 183              	.L19:
 184              		.loc 1 78 0 is_stmt 1
 185 003a 019A     		ldr	r2, [sp, #4]
 186 003c 1B68     		ldr	r3, [r3]
 187 003e 9A42     		cmp	r2, r3
 188 0040 1CD1     		bne	.L31
 189 0042 03B0     		add	sp, sp, #12
 190              		.cfi_remember_state
 191              		.cfi_def_cfa_offset 4
 192              		@ sp needed
 193 0044 5DF804FB 		ldr	pc, [sp], #4
 194              	.L20:
 195              		.cfi_restore_state
 196              		.loc 1 74 0 discriminator 2
 197 0048 0E4A     		ldr	r2, .L34+4
 198 004a 4FF40071 		mov	r1, #512
 199 004e 5183     		strh	r1, [r2, #26]	@ movhi
 200              		.loc 1 75 0 discriminator 2
 201 0050 4278     		ldrb	r2, [r0, #1]	@ zero_extendqisi2
 202 0052 002A     		cmp	r2, #0
 203 0054 E1D1     		bne	.L32
 204              	.L22:
 205 0056 0B4A     		ldr	r2, .L34+4
 206 0058 4FF48071 		mov	r1, #256
 207 005c 5183     		strh	r1, [r2, #26]	@ movhi
 208              		.loc 1 76 0 discriminator 2
 209 005e 8278     		ldrb	r2, [r0, #2]	@ zero_extendqisi2
 210 0060 002A     		cmp	r2, #0
 211 0062 E0D1     		bne	.L33
 212              	.L24:
 213 0064 074A     		ldr	r2, .L34+4
 214 0066 4FF40061 		mov	r1, #2048
 215 006a 5183     		strh	r1, [r2, #26]	@ movhi
 216              		.loc 1 77 0 discriminator 2
 217 006c C278     		ldrb	r2, [r0, #3]	@ zero_extendqisi2
 218 006e 002A     		cmp	r2, #0
 219 0070 DFD0     		beq	.L26
 220              	.L30:
 221              		.loc 1 77 0 is_stmt 0 discriminator 1
 222 0072 044A     		ldr	r2, .L34+4
 223 0074 4FF48061 		mov	r1, #1024
 224 0078 1183     		strh	r1, [r2, #24]	@ movhi
 225 007a DEE7     		b	.L19
 226              	.L31:
 227              		.loc 1 78 0 is_stmt 1
 228 007c FFF7FEFF 		bl	__stack_chk_fail
ARM GAS  /var/folders/0b/rh7d8qts4ys3rdpl8xd_0jkm0000gn/T//ccT1yIt8.s 			page 5


 229              	.LVL3:
 230              	.L35:
 231              		.align	2
 232              	.L34:
 233 0080 00000000 		.word	__stack_chk_guard
 234 0084 00100240 		.word	1073876992
 235              		.cfi_endproc
 236              	.LFE257:
 237              		.size	left_motor_update, .-left_motor_update
 238              		.section	.text.right_motor_pwm_ch1_cb,"ax",%progbits
 239              		.align	1
 240              		.p2align 4,,15
 241              		.syntax unified
 242              		.thumb
 243              		.thumb_func
 244              		.fpu fpv4-sp-d16
 245              		.type	right_motor_pwm_ch1_cb, %function
 246              	right_motor_pwm_ch1_cb:
 247              	.LFB260:
 248              		.loc 1 137 0
 249              		.cfi_startproc
 250              		@ args = 0, pretend = 0, frame = 8
 251              		@ frame_needed = 0, uses_anonymous_args = 0
 252              	.LVL4:
 253 0000 30B5     		push	{r4, r5, lr}
 254              		.cfi_def_cfa_offset 12
 255              		.cfi_offset 4, -12
 256              		.cfi_offset 5, -8
 257              		.cfi_offset 14, -4
 258 0002 0C4A     		ldr	r2, .L40
 259              		.loc 1 139 0
 260 0004 0C4B     		ldr	r3, .L40+4
 261              		.loc 1 137 0
 262 0006 1168     		ldr	r1, [r2]
 263 0008 83B0     		sub	sp, sp, #12
 264              		.cfi_def_cfa_offset 24
 265              		.loc 1 139 0
 266 000a 4FF40055 		mov	r5, #8192
 267              		.loc 1 137 0
 268 000e 0191     		str	r1, [sp, #4]
 269              		.loc 1 140 0
 270 0010 4FF48054 		mov	r4, #4096
 271              		.loc 1 142 0
 272 0014 4FF40041 		mov	r1, #32768
 273              		.loc 1 141 0
 274 0018 4FF48040 		mov	r0, #16384
 275              	.LVL5:
 276              		.loc 1 139 0
 277 001c 5D83     		strh	r5, [r3, #26]	@ movhi
 278              		.loc 1 140 0
 279 001e 5C83     		strh	r4, [r3, #26]	@ movhi
 280              		.loc 1 141 0
 281 0020 5883     		strh	r0, [r3, #26]	@ movhi
 282              		.loc 1 142 0
 283 0022 5983     		strh	r1, [r3, #26]	@ movhi
 284              		.loc 1 143 0
 285 0024 0199     		ldr	r1, [sp, #4]
ARM GAS  /var/folders/0b/rh7d8qts4ys3rdpl8xd_0jkm0000gn/T//ccT1yIt8.s 			page 6


 286 0026 1368     		ldr	r3, [r2]
 287 0028 9942     		cmp	r1, r3
 288 002a 01D1     		bne	.L39
 289 002c 03B0     		add	sp, sp, #12
 290              		.cfi_remember_state
 291              		.cfi_def_cfa_offset 12
 292              		@ sp needed
 293 002e 30BD     		pop	{r4, r5, pc}
 294              	.L39:
 295              		.cfi_restore_state
 296 0030 FFF7FEFF 		bl	__stack_chk_fail
 297              	.LVL6:
 298              	.L41:
 299              		.align	2
 300              	.L40:
 301 0034 00000000 		.word	__stack_chk_guard
 302 0038 00100240 		.word	1073876992
 303              		.cfi_endproc
 304              	.LFE260:
 305              		.size	right_motor_pwm_ch1_cb, .-right_motor_pwm_ch1_cb
 306              		.section	.text.left_motor_pwm_ch1_cb,"ax",%progbits
 307              		.align	1
 308              		.p2align 4,,15
 309              		.syntax unified
 310              		.thumb
 311              		.thumb_func
 312              		.fpu fpv4-sp-d16
 313              		.type	left_motor_pwm_ch1_cb, %function
 314              	left_motor_pwm_ch1_cb:
 315              	.LFB261:
 316              		.loc 1 152 0
 317              		.cfi_startproc
 318              		@ args = 0, pretend = 0, frame = 8
 319              		@ frame_needed = 0, uses_anonymous_args = 0
 320              	.LVL7:
 321 0000 30B5     		push	{r4, r5, lr}
 322              		.cfi_def_cfa_offset 12
 323              		.cfi_offset 4, -12
 324              		.cfi_offset 5, -8
 325              		.cfi_offset 14, -4
 326 0002 0C4A     		ldr	r2, .L46
 327              		.loc 1 154 0
 328 0004 0C4B     		ldr	r3, .L46+4
 329              		.loc 1 152 0
 330 0006 1168     		ldr	r1, [r2]
 331 0008 83B0     		sub	sp, sp, #12
 332              		.cfi_def_cfa_offset 24
 333              		.loc 1 154 0
 334 000a 4FF40075 		mov	r5, #512
 335              		.loc 1 152 0
 336 000e 0191     		str	r1, [sp, #4]
 337              		.loc 1 155 0
 338 0010 4FF48074 		mov	r4, #256
 339              		.loc 1 157 0
 340 0014 4FF48061 		mov	r1, #1024
 341              		.loc 1 156 0
 342 0018 4FF40060 		mov	r0, #2048
ARM GAS  /var/folders/0b/rh7d8qts4ys3rdpl8xd_0jkm0000gn/T//ccT1yIt8.s 			page 7


 343              	.LVL8:
 344              		.loc 1 154 0
 345 001c 5D83     		strh	r5, [r3, #26]	@ movhi
 346              		.loc 1 155 0
 347 001e 5C83     		strh	r4, [r3, #26]	@ movhi
 348              		.loc 1 156 0
 349 0020 5883     		strh	r0, [r3, #26]	@ movhi
 350              		.loc 1 157 0
 351 0022 5983     		strh	r1, [r3, #26]	@ movhi
 352              		.loc 1 158 0
 353 0024 0199     		ldr	r1, [sp, #4]
 354 0026 1368     		ldr	r3, [r2]
 355 0028 9942     		cmp	r1, r3
 356 002a 01D1     		bne	.L45
 357 002c 03B0     		add	sp, sp, #12
 358              		.cfi_remember_state
 359              		.cfi_def_cfa_offset 12
 360              		@ sp needed
 361 002e 30BD     		pop	{r4, r5, pc}
 362              	.L45:
 363              		.cfi_restore_state
 364 0030 FFF7FEFF 		bl	__stack_chk_fail
 365              	.LVL9:
 366              	.L47:
 367              		.align	2
 368              	.L46:
 369 0034 00000000 		.word	__stack_chk_guard
 370 0038 00100240 		.word	1073876992
 371              		.cfi_endproc
 372              	.LFE261:
 373              		.size	left_motor_pwm_ch1_cb, .-left_motor_pwm_ch1_cb
 374              		.section	.text.right_motor_enable_power_save,"ax",%progbits
 375              		.align	1
 376              		.p2align 4,,15
 377              		.global	right_motor_enable_power_save
 378              		.syntax unified
 379              		.thumb
 380              		.thumb_func
 381              		.fpu fpv4-sp-d16
 382              		.type	right_motor_enable_power_save, %function
 383              	right_motor_enable_power_save:
 384              	.LFB262:
 385              		.loc 1 163 0
 386              		.cfi_startproc
 387              		@ args = 0, pretend = 0, frame = 8
 388              		@ frame_needed = 0, uses_anonymous_args = 0
 389 0000 10B5     		push	{r4, lr}
 390              		.cfi_def_cfa_offset 8
 391              		.cfi_offset 4, -8
 392              		.cfi_offset 14, -4
 393 0002 0B4C     		ldr	r4, .L53
 394              		.loc 1 165 0
 395 0004 0B48     		ldr	r0, .L53+4
 396              		.loc 1 163 0
 397 0006 2368     		ldr	r3, [r4]
 398 0008 82B0     		sub	sp, sp, #8
 399              		.cfi_def_cfa_offset 16
ARM GAS  /var/folders/0b/rh7d8qts4ys3rdpl8xd_0jkm0000gn/T//ccT1yIt8.s 			page 8


 400              		.loc 1 165 0
 401 000a 9922     		movs	r2, #153
 402 000c 0021     		movs	r1, #0
 403              		.loc 1 163 0
 404 000e 0193     		str	r3, [sp, #4]
 405              		.loc 1 165 0
 406 0010 FFF7FEFF 		bl	pwmEnableChannel
 407              	.LVL10:
 408              		.loc 1 167 0
 409 0014 019A     		ldr	r2, [sp, #4]
 410 0016 2368     		ldr	r3, [r4]
 411 0018 9A42     		cmp	r2, r3
 412 001a 06D1     		bne	.L52
 413 001c 0548     		ldr	r0, .L53+4
 414 001e 0021     		movs	r1, #0
 415              		.loc 1 168 0
 416 0020 02B0     		add	sp, sp, #8
 417              		.cfi_remember_state
 418              		.cfi_def_cfa_offset 8
 419              		@ sp needed
 420 0022 BDE81040 		pop	{r4, lr}
 421              		.cfi_restore 14
 422              		.cfi_restore 4
 423              		.cfi_def_cfa_offset 0
 424              		.loc 1 167 0
 425 0026 FFF7FEBF 		b	pwmEnableChannelNotification
 426              	.LVL11:
 427              	.L52:
 428              		.cfi_restore_state
 429 002a FFF7FEFF 		bl	__stack_chk_fail
 430              	.LVL12:
 431              	.L54:
 432 002e 00BF     		.align	2
 433              	.L53:
 434 0030 00000000 		.word	__stack_chk_guard
 435 0034 00000000 		.word	PWMD3
 436              		.cfi_endproc
 437              	.LFE262:
 438              		.size	right_motor_enable_power_save, .-right_motor_enable_power_save
 439              		.section	.text.left_motor_enable_power_save,"ax",%progbits
 440              		.align	1
 441              		.p2align 4,,15
 442              		.global	left_motor_enable_power_save
 443              		.syntax unified
 444              		.thumb
 445              		.thumb_func
 446              		.fpu fpv4-sp-d16
 447              		.type	left_motor_enable_power_save, %function
 448              	left_motor_enable_power_save:
 449              	.LFB263:
 450              		.loc 1 173 0
 451              		.cfi_startproc
 452              		@ args = 0, pretend = 0, frame = 8
 453              		@ frame_needed = 0, uses_anonymous_args = 0
 454 0000 10B5     		push	{r4, lr}
 455              		.cfi_def_cfa_offset 8
 456              		.cfi_offset 4, -8
ARM GAS  /var/folders/0b/rh7d8qts4ys3rdpl8xd_0jkm0000gn/T//ccT1yIt8.s 			page 9


 457              		.cfi_offset 14, -4
 458 0002 0B4C     		ldr	r4, .L60
 459              		.loc 1 175 0
 460 0004 0B48     		ldr	r0, .L60+4
 461              		.loc 1 173 0
 462 0006 2368     		ldr	r3, [r4]
 463 0008 82B0     		sub	sp, sp, #8
 464              		.cfi_def_cfa_offset 16
 465              		.loc 1 175 0
 466 000a 9922     		movs	r2, #153
 467 000c 0021     		movs	r1, #0
 468              		.loc 1 173 0
 469 000e 0193     		str	r3, [sp, #4]
 470              		.loc 1 175 0
 471 0010 FFF7FEFF 		bl	pwmEnableChannel
 472              	.LVL13:
 473              		.loc 1 177 0
 474 0014 019A     		ldr	r2, [sp, #4]
 475 0016 2368     		ldr	r3, [r4]
 476 0018 9A42     		cmp	r2, r3
 477 001a 06D1     		bne	.L59
 478 001c 0548     		ldr	r0, .L60+4
 479 001e 0021     		movs	r1, #0
 480              		.loc 1 178 0
 481 0020 02B0     		add	sp, sp, #8
 482              		.cfi_remember_state
 483              		.cfi_def_cfa_offset 8
 484              		@ sp needed
 485 0022 BDE81040 		pop	{r4, lr}
 486              		.cfi_restore 14
 487              		.cfi_restore 4
 488              		.cfi_def_cfa_offset 0
 489              		.loc 1 177 0
 490 0026 FFF7FEBF 		b	pwmEnableChannelNotification
 491              	.LVL14:
 492              	.L59:
 493              		.cfi_restore_state
 494 002a FFF7FEFF 		bl	__stack_chk_fail
 495              	.LVL15:
 496              	.L61:
 497 002e 00BF     		.align	2
 498              	.L60:
 499 0030 00000000 		.word	__stack_chk_guard
 500 0034 00000000 		.word	PWMD4
 501              		.cfi_endproc
 502              	.LFE263:
 503              		.size	left_motor_enable_power_save, .-left_motor_enable_power_save
 504              		.section	.text.right_motor_disable_power_save,"ax",%progbits
 505              		.align	1
 506              		.p2align 4,,15
 507              		.global	right_motor_disable_power_save
 508              		.syntax unified
 509              		.thumb
 510              		.thumb_func
 511              		.fpu fpv4-sp-d16
 512              		.type	right_motor_disable_power_save, %function
 513              	right_motor_disable_power_save:
ARM GAS  /var/folders/0b/rh7d8qts4ys3rdpl8xd_0jkm0000gn/T//ccT1yIt8.s 			page 10


 514              	.LFB264:
 515              		.loc 1 183 0
 516              		.cfi_startproc
 517              		@ args = 0, pretend = 0, frame = 8
 518              		@ frame_needed = 0, uses_anonymous_args = 0
 519 0000 00B5     		push	{lr}
 520              		.cfi_def_cfa_offset 4
 521              		.cfi_offset 14, -4
 522 0002 084B     		ldr	r3, .L67
 523 0004 83B0     		sub	sp, sp, #12
 524              		.cfi_def_cfa_offset 16
 525              		.loc 1 183 0
 526 0006 1A68     		ldr	r2, [r3]
 527 0008 0192     		str	r2, [sp, #4]
 528              		.loc 1 184 0
 529 000a 019A     		ldr	r2, [sp, #4]
 530 000c 1B68     		ldr	r3, [r3]
 531 000e 9A42     		cmp	r2, r3
 532 0010 06D1     		bne	.L66
 533 0012 0548     		ldr	r0, .L67+4
 534 0014 0021     		movs	r1, #0
 535              		.loc 1 185 0
 536 0016 03B0     		add	sp, sp, #12
 537              		.cfi_remember_state
 538              		.cfi_def_cfa_offset 4
 539              		@ sp needed
 540 0018 5DF804EB 		ldr	lr, [sp], #4
 541              		.cfi_restore 14
 542              		.cfi_def_cfa_offset 0
 543              		.loc 1 184 0
 544 001c FFF7FEBF 		b	pwmDisableChannel
 545              	.LVL16:
 546              	.L66:
 547              		.cfi_restore_state
 548 0020 FFF7FEFF 		bl	__stack_chk_fail
 549              	.LVL17:
 550              	.L68:
 551              		.align	2
 552              	.L67:
 553 0024 00000000 		.word	__stack_chk_guard
 554 0028 00000000 		.word	PWMD3
 555              		.cfi_endproc
 556              	.LFE264:
 557              		.size	right_motor_disable_power_save, .-right_motor_disable_power_save
 558              		.section	.text.left_motor_disable_power_save,"ax",%progbits
 559              		.align	1
 560              		.p2align 4,,15
 561              		.global	left_motor_disable_power_save
 562              		.syntax unified
 563              		.thumb
 564              		.thumb_func
 565              		.fpu fpv4-sp-d16
 566              		.type	left_motor_disable_power_save, %function
 567              	left_motor_disable_power_save:
 568              	.LFB265:
 569              		.loc 1 190 0
 570              		.cfi_startproc
ARM GAS  /var/folders/0b/rh7d8qts4ys3rdpl8xd_0jkm0000gn/T//ccT1yIt8.s 			page 11


 571              		@ args = 0, pretend = 0, frame = 8
 572              		@ frame_needed = 0, uses_anonymous_args = 0
 573 0000 00B5     		push	{lr}
 574              		.cfi_def_cfa_offset 4
 575              		.cfi_offset 14, -4
 576 0002 084B     		ldr	r3, .L74
 577 0004 83B0     		sub	sp, sp, #12
 578              		.cfi_def_cfa_offset 16
 579              		.loc 1 190 0
 580 0006 1A68     		ldr	r2, [r3]
 581 0008 0192     		str	r2, [sp, #4]
 582              		.loc 1 191 0
 583 000a 019A     		ldr	r2, [sp, #4]
 584 000c 1B68     		ldr	r3, [r3]
 585 000e 9A42     		cmp	r2, r3
 586 0010 06D1     		bne	.L73
 587 0012 0548     		ldr	r0, .L74+4
 588 0014 0021     		movs	r1, #0
 589              		.loc 1 192 0
 590 0016 03B0     		add	sp, sp, #12
 591              		.cfi_remember_state
 592              		.cfi_def_cfa_offset 4
 593              		@ sp needed
 594 0018 5DF804EB 		ldr	lr, [sp], #4
 595              		.cfi_restore 14
 596              		.cfi_def_cfa_offset 0
 597              		.loc 1 191 0
 598 001c FFF7FEBF 		b	pwmDisableChannel
 599              	.LVL18:
 600              	.L73:
 601              		.cfi_restore_state
 602 0020 FFF7FEFF 		bl	__stack_chk_fail
 603              	.LVL19:
 604              	.L75:
 605              		.align	2
 606              	.L74:
 607 0024 00000000 		.word	__stack_chk_guard
 608 0028 00000000 		.word	PWMD4
 609              		.cfi_endproc
 610              	.LFE265:
 611              		.size	left_motor_disable_power_save, .-left_motor_disable_power_save
 612              		.section	.text.right_motor_timer_callback,"ax",%progbits
 613              		.align	1
 614              		.p2align 4,,15
 615              		.syntax unified
 616              		.thumb
 617              		.thumb_func
 618              		.fpu fpv4-sp-d16
 619              		.type	right_motor_timer_callback, %function
 620              	right_motor_timer_callback:
 621              	.LFB258:
 622              		.loc 1 87 0
 623              		.cfi_startproc
 624              		@ args = 0, pretend = 0, frame = 8
 625              		@ frame_needed = 0, uses_anonymous_args = 0
 626              	.LVL20:
 627 0000 70B5     		push	{r4, r5, r6, lr}
ARM GAS  /var/folders/0b/rh7d8qts4ys3rdpl8xd_0jkm0000gn/T//ccT1yIt8.s 			page 12


 628              		.cfi_def_cfa_offset 16
 629              		.cfi_offset 4, -16
 630              		.cfi_offset 5, -12
 631              		.cfi_offset 6, -8
 632              		.cfi_offset 14, -4
 633              		.loc 1 90 0
 634 0002 1A4C     		ldr	r4, .L85
 635              		.loc 1 87 0
 636 0004 1A4E     		ldr	r6, .L85+4
 637              		.loc 1 90 0
 638 0006 2378     		ldrb	r3, [r4]	@ zero_extendqisi2
 639              		.loc 1 87 0
 640 0008 3268     		ldr	r2, [r6]
 641 000a 82B0     		sub	sp, sp, #8
 642              		.cfi_def_cfa_offset 24
 643              		.loc 1 90 0
 644 000c 022B     		cmp	r3, #2
 645              		.loc 1 87 0
 646 000e 0192     		str	r2, [sp, #4]
 647 0010 A268     		ldr	r2, [r4, #8]
 648              		.loc 1 90 0
 649 0012 11D1     		bne	.L77
 650              		.loc 1 91 0
 651 0014 6578     		ldrb	r5, [r4, #1]	@ zero_extendqisi2
 652              		.loc 1 92 0
 653 0016 1748     		ldr	r0, .L85+8
 654              	.LVL21:
 655              		.loc 1 91 0
 656 0018 0135     		adds	r5, r5, #1
 657 001a 05F00705 		and	r5, r5, #7
 658              	.LVL22:
 659              		.loc 1 92 0
 660 001e 00EB8500 		add	r0, r0, r5, lsl #2
 661 0022 9047     		blx	r2
 662              	.LVL23:
 663              		.loc 1 93 0
 664 0024 6368     		ldr	r3, [r4, #4]
 665              		.loc 1 94 0
 666 0026 6570     		strb	r5, [r4, #1]
 667              		.loc 1 93 0
 668 0028 013B     		subs	r3, r3, #1
 669 002a 6360     		str	r3, [r4, #4]
 670              	.LVL24:
 671              	.L76:
 672              		.loc 1 103 0
 673 002c 019A     		ldr	r2, [sp, #4]
 674 002e 3368     		ldr	r3, [r6]
 675 0030 9A42     		cmp	r2, r3
 676 0032 19D1     		bne	.L83
 677 0034 02B0     		add	sp, sp, #8
 678              		.cfi_remember_state
 679              		.cfi_def_cfa_offset 16
 680              		@ sp needed
 681 0036 70BD     		pop	{r4, r5, r6, pc}
 682              	.LVL25:
 683              	.L77:
 684              		.cfi_restore_state
ARM GAS  /var/folders/0b/rh7d8qts4ys3rdpl8xd_0jkm0000gn/T//ccT1yIt8.s 			page 13


 685              		.loc 1 95 0
 686 0038 012B     		cmp	r3, #1
 687 003a 08D0     		beq	.L84
 688              		.loc 1 101 0
 689 003c 0199     		ldr	r1, [sp, #4]
 690 003e 3368     		ldr	r3, [r6]
 691 0040 9942     		cmp	r1, r3
 692 0042 11D1     		bne	.L83
 693 0044 0C48     		ldr	r0, .L85+12
 694              	.LVL26:
 695              		.loc 1 103 0
 696 0046 02B0     		add	sp, sp, #8
 697              		.cfi_remember_state
 698              		.cfi_def_cfa_offset 16
 699              		@ sp needed
 700 0048 BDE87040 		pop	{r4, r5, r6, lr}
 701              		.cfi_restore 14
 702              		.cfi_restore 6
 703              		.cfi_restore 5
 704              		.cfi_restore 4
 705              		.cfi_def_cfa_offset 0
 706              		.loc 1 101 0
 707 004c 1047     		bx	r2	@ indirect register sibling call
 708              	.LVL27:
 709              	.L84:
 710              		.cfi_restore_state
 711              	.LBB28:
 712              	.LBB29:
 713              		.loc 1 96 0
 714 004e 6578     		ldrb	r5, [r4, #1]	@ zero_extendqisi2
 715              		.loc 1 97 0
 716 0050 0848     		ldr	r0, .L85+8
 717              	.LVL28:
 718              		.loc 1 96 0
 719 0052 013D     		subs	r5, r5, #1
 720 0054 05F00705 		and	r5, r5, #7
 721              	.LVL29:
 722              		.loc 1 97 0
 723 0058 00EB8500 		add	r0, r0, r5, lsl #2
 724 005c 9047     		blx	r2
 725              	.LVL30:
 726              		.loc 1 98 0
 727 005e 6368     		ldr	r3, [r4, #4]
 728              		.loc 1 99 0
 729 0060 6570     		strb	r5, [r4, #1]
 730              		.loc 1 98 0
 731 0062 0133     		adds	r3, r3, #1
 732 0064 6360     		str	r3, [r4, #4]
 733 0066 E1E7     		b	.L76
 734              	.LVL31:
 735              	.L83:
 736              	.LBE29:
 737              	.LBE28:
 738              		.loc 1 103 0
 739 0068 FFF7FEFF 		bl	__stack_chk_fail
 740              	.LVL32:
 741              	.L86:
ARM GAS  /var/folders/0b/rh7d8qts4ys3rdpl8xd_0jkm0000gn/T//ccT1yIt8.s 			page 14


 742              		.align	2
 743              	.L85:
 744 006c 00000000 		.word	.LANCHOR0
 745 0070 00000000 		.word	__stack_chk_guard
 746 0074 00000000 		.word	.LANCHOR1
 747 0078 00000000 		.word	.LANCHOR2
 748              		.cfi_endproc
 749              	.LFE258:
 750              		.size	right_motor_timer_callback, .-right_motor_timer_callback
 751              		.section	.text.left_motor_timer_callback,"ax",%progbits
 752              		.align	1
 753              		.p2align 4,,15
 754              		.syntax unified
 755              		.thumb
 756              		.thumb_func
 757              		.fpu fpv4-sp-d16
 758              		.type	left_motor_timer_callback, %function
 759              	left_motor_timer_callback:
 760              	.LFB259:
 761              		.loc 1 112 0
 762              		.cfi_startproc
 763              		@ args = 0, pretend = 0, frame = 8
 764              		@ frame_needed = 0, uses_anonymous_args = 0
 765              	.LVL33:
 766 0000 70B5     		push	{r4, r5, r6, lr}
 767              		.cfi_def_cfa_offset 16
 768              		.cfi_offset 4, -16
 769              		.cfi_offset 5, -12
 770              		.cfi_offset 6, -8
 771              		.cfi_offset 14, -4
 772              		.loc 1 115 0
 773 0002 1A4C     		ldr	r4, .L96
 774              		.loc 1 112 0
 775 0004 1A4E     		ldr	r6, .L96+4
 776              		.loc 1 115 0
 777 0006 2378     		ldrb	r3, [r4]	@ zero_extendqisi2
 778              		.loc 1 112 0
 779 0008 3268     		ldr	r2, [r6]
 780 000a 82B0     		sub	sp, sp, #8
 781              		.cfi_def_cfa_offset 24
 782              		.loc 1 115 0
 783 000c 012B     		cmp	r3, #1
 784              		.loc 1 112 0
 785 000e 0192     		str	r2, [sp, #4]
 786 0010 A268     		ldr	r2, [r4, #8]
 787              		.loc 1 115 0
 788 0012 11D1     		bne	.L88
 789              		.loc 1 116 0
 790 0014 6578     		ldrb	r5, [r4, #1]	@ zero_extendqisi2
 791              		.loc 1 117 0
 792 0016 1748     		ldr	r0, .L96+8
 793              	.LVL34:
 794              		.loc 1 116 0
 795 0018 0135     		adds	r5, r5, #1
 796 001a 05F00705 		and	r5, r5, #7
 797              	.LVL35:
 798              		.loc 1 117 0
ARM GAS  /var/folders/0b/rh7d8qts4ys3rdpl8xd_0jkm0000gn/T//ccT1yIt8.s 			page 15


 799 001e 00EB8500 		add	r0, r0, r5, lsl #2
 800 0022 9047     		blx	r2
 801              	.LVL36:
 802              		.loc 1 118 0
 803 0024 6368     		ldr	r3, [r4, #4]
 804              		.loc 1 119 0
 805 0026 6570     		strb	r5, [r4, #1]
 806              		.loc 1 118 0
 807 0028 0133     		adds	r3, r3, #1
 808 002a 6360     		str	r3, [r4, #4]
 809              	.LVL37:
 810              	.L87:
 811              		.loc 1 128 0
 812 002c 019A     		ldr	r2, [sp, #4]
 813 002e 3368     		ldr	r3, [r6]
 814 0030 9A42     		cmp	r2, r3
 815 0032 19D1     		bne	.L94
 816 0034 02B0     		add	sp, sp, #8
 817              		.cfi_remember_state
 818              		.cfi_def_cfa_offset 16
 819              		@ sp needed
 820 0036 70BD     		pop	{r4, r5, r6, pc}
 821              	.LVL38:
 822              	.L88:
 823              		.cfi_restore_state
 824              		.loc 1 120 0
 825 0038 022B     		cmp	r3, #2
 826 003a 08D0     		beq	.L95
 827              		.loc 1 126 0
 828 003c 0199     		ldr	r1, [sp, #4]
 829 003e 3368     		ldr	r3, [r6]
 830 0040 9942     		cmp	r1, r3
 831 0042 11D1     		bne	.L94
 832 0044 0C48     		ldr	r0, .L96+12
 833              	.LVL39:
 834              		.loc 1 128 0
 835 0046 02B0     		add	sp, sp, #8
 836              		.cfi_remember_state
 837              		.cfi_def_cfa_offset 16
 838              		@ sp needed
 839 0048 BDE87040 		pop	{r4, r5, r6, lr}
 840              		.cfi_restore 14
 841              		.cfi_restore 6
 842              		.cfi_restore 5
 843              		.cfi_restore 4
 844              		.cfi_def_cfa_offset 0
 845              		.loc 1 126 0
 846 004c 1047     		bx	r2	@ indirect register sibling call
 847              	.LVL40:
 848              	.L95:
 849              		.cfi_restore_state
 850              	.LBB32:
 851              	.LBB33:
 852              		.loc 1 121 0
 853 004e 6578     		ldrb	r5, [r4, #1]	@ zero_extendqisi2
 854              		.loc 1 122 0
 855 0050 0848     		ldr	r0, .L96+8
ARM GAS  /var/folders/0b/rh7d8qts4ys3rdpl8xd_0jkm0000gn/T//ccT1yIt8.s 			page 16


 856              	.LVL41:
 857              		.loc 1 121 0
 858 0052 013D     		subs	r5, r5, #1
 859 0054 05F00705 		and	r5, r5, #7
 860              	.LVL42:
 861              		.loc 1 122 0
 862 0058 00EB8500 		add	r0, r0, r5, lsl #2
 863 005c 9047     		blx	r2
 864              	.LVL43:
 865              		.loc 1 123 0
 866 005e 6368     		ldr	r3, [r4, #4]
 867              		.loc 1 124 0
 868 0060 6570     		strb	r5, [r4, #1]
 869              		.loc 1 123 0
 870 0062 013B     		subs	r3, r3, #1
 871 0064 6360     		str	r3, [r4, #4]
 872 0066 E1E7     		b	.L87
 873              	.LVL44:
 874              	.L94:
 875              	.LBE33:
 876              	.LBE32:
 877              		.loc 1 128 0
 878 0068 FFF7FEFF 		bl	__stack_chk_fail
 879              	.LVL45:
 880              	.L97:
 881              		.align	2
 882              	.L96:
 883 006c 00000000 		.word	.LANCHOR3
 884 0070 00000000 		.word	__stack_chk_guard
 885 0074 00000000 		.word	.LANCHOR1
 886 0078 00000000 		.word	.LANCHOR2
 887              		.cfi_endproc
 888              	.LFE259:
 889              		.size	left_motor_timer_callback, .-left_motor_timer_callback
 890              		.section	.text.motor_set_speed,"ax",%progbits
 891              		.align	1
 892              		.p2align 4,,15
 893              		.global	motor_set_speed
 894              		.syntax unified
 895              		.thumb
 896              		.thumb_func
 897              		.fpu fpv4-sp-d16
 898              		.type	motor_set_speed, %function
 899              	motor_set_speed:
 900              	.LFB266:
 901              		.loc 1 201 0
 902              		.cfi_startproc
 903              		@ args = 0, pretend = 0, frame = 16
 904              		@ frame_needed = 0, uses_anonymous_args = 0
 905              	.LVL46:
 906 0000 30B5     		push	{r4, r5, lr}
 907              		.cfi_def_cfa_offset 12
 908              		.cfi_offset 4, -12
 909              		.cfi_offset 5, -8
 910              		.cfi_offset 14, -4
 911 0002 1F4D     		ldr	r5, .L110
 912 0004 85B0     		sub	sp, sp, #20
ARM GAS  /var/folders/0b/rh7d8qts4ys3rdpl8xd_0jkm0000gn/T//ccT1yIt8.s 			page 17


 913              		.cfi_def_cfa_offset 32
 914              		.loc 1 201 0
 915 0006 2B68     		ldr	r3, [r5]
 916 0008 0393     		str	r3, [sp, #12]
 917              		.loc 1 203 0
 918 000a 40F24C43 		movw	r3, #1100
 919 000e 9942     		cmp	r1, r3
 920              		.loc 1 201 0
 921 0010 0446     		mov	r4, r0
 922              		.loc 1 203 0
 923 0012 26DC     		bgt	.L99
 924              		.loc 1 205 0
 925 0014 A3F69803 		subw	r3, r3, #2200
 926 0018 9942     		cmp	r1, r3
 927 001a 11DB     		blt	.L107
 928              		.loc 1 210 0
 929 001c 4B00     		lsls	r3, r1, #1
 930              	.LVL47:
 931              		.loc 1 213 0
 932 001e 002B     		cmp	r3, #0
 933 0020 29D1     		bne	.L101
 934              		.loc 1 214 0
 935 0022 0370     		strb	r3, [r0]
 936              	.LVL48:
 937              		.loc 1 217 0
 938 0024 0369     		ldr	r3, [r0, #16]
 939              	.LVL49:
 940 0026 9847     		blx	r3
 941              	.LVL50:
 942 0028 4FF47A71 		mov	r1, #1000
 943              	.LVL51:
 944              	.L102:
 945              		.loc 1 235 0
 946 002c 039A     		ldr	r2, [sp, #12]
 947 002e 2B68     		ldr	r3, [r5]
 948 0030 9A42     		cmp	r2, r3
 949 0032 1ED1     		bne	.L109
 950 0034 6069     		ldr	r0, [r4, #20]
 951              		.loc 1 236 0
 952 0036 05B0     		add	sp, sp, #20
 953              		.cfi_remember_state
 954              		.cfi_def_cfa_offset 12
 955              		@ sp needed
 956 0038 BDE83040 		pop	{r4, r5, lr}
 957              		.cfi_restore 14
 958              		.cfi_restore 5
 959              		.cfi_restore 4
 960              		.cfi_def_cfa_offset 0
 961              	.LVL52:
 962              		.loc 1 235 0
 963 003c FFF7FEBF 		b	pwmChangePeriod
 964              	.LVL53:
 965              	.L107:
 966              		.cfi_restore_state
 967 0040 104B     		ldr	r3, .L110+4
 968              	.LVL54:
 969              	.L100:
ARM GAS  /var/folders/0b/rh7d8qts4ys3rdpl8xd_0jkm0000gn/T//ccT1yIt8.s 			page 18


 970              		.loc 1 222 0
 971 0042 0222     		movs	r2, #2
 972              		.loc 1 223 0
 973 0044 5B42     		negs	r3, r3
 974              	.LVL55:
 975              		.loc 1 222 0
 976 0046 2270     		strb	r2, [r4]
 977              	.L103:
 978              	.LVL56:
 979              		.loc 1 227 0
 980 0048 40F28922 		movw	r2, #649
 981 004c 9342     		cmp	r3, r2
 982              		.loc 1 225 0
 983 004e 0E49     		ldr	r1, .L110+8
 984 0050 91FBF3F1 		sdiv	r1, r1, r3
 985 0054 89B2     		uxth	r1, r1
 986              		.loc 1 227 0
 987 0056 07DC     		bgt	.L104
 988 0058 0191     		str	r1, [sp, #4]
 989              		.loc 1 228 0
 990 005a E368     		ldr	r3, [r4, #12]
 991              	.LVL57:
 992 005c 9847     		blx	r3
 993              	.LVL58:
 994 005e 0199     		ldr	r1, [sp, #4]
 995 0060 E4E7     		b	.L102
 996              	.LVL59:
 997              	.L99:
 998              		.loc 1 220 0
 999 0062 0123     		movs	r3, #1
 1000 0064 0370     		strb	r3, [r0]
 1001              	.LVL60:
 1002 0066 2D21     		movs	r1, #45
 1003              	.LVL61:
 1004              	.L104:
 1005 0068 0191     		str	r1, [sp, #4]
 1006              		.loc 1 230 0
 1007 006a 2369     		ldr	r3, [r4, #16]
 1008 006c 9847     		blx	r3
 1009              	.LVL62:
 1010 006e 0199     		ldr	r1, [sp, #4]
 1011 0070 DCE7     		b	.L102
 1012              	.L109:
 1013              		.loc 1 235 0
 1014 0072 FFF7FEFF 		bl	__stack_chk_fail
 1015              	.LVL63:
 1016              	.L101:
 1017              		.loc 1 219 0
 1018 0076 E4DD     		ble	.L100
 1019              		.loc 1 220 0
 1020 0078 0122     		movs	r2, #1
 1021 007a 0270     		strb	r2, [r0]
 1022 007c E4E7     		b	.L103
 1023              	.L111:
 1024 007e 00BF     		.align	2
 1025              	.L110:
 1026 0080 00000000 		.word	__stack_chk_guard
ARM GAS  /var/folders/0b/rh7d8qts4ys3rdpl8xd_0jkm0000gn/T//ccT1yIt8.s 			page 19


 1027 0084 68F7FFFF 		.word	-2200
 1028 0088 A0860100 		.word	100000
 1029              		.cfi_endproc
 1030              	.LFE266:
 1031              		.size	motor_set_speed, .-motor_set_speed
 1032              		.section	.text.left_motor_set_speed,"ax",%progbits
 1033              		.align	1
 1034              		.p2align 4,,15
 1035              		.global	left_motor_set_speed
 1036              		.syntax unified
 1037              		.thumb
 1038              		.thumb_func
 1039              		.fpu fpv4-sp-d16
 1040              		.type	left_motor_set_speed, %function
 1041              	left_motor_set_speed:
 1042              	.LFB267:
 1043              		.loc 1 243 0
 1044              		.cfi_startproc
 1045              		@ args = 0, pretend = 0, frame = 8
 1046              		@ frame_needed = 0, uses_anonymous_args = 0
 1047              	.LVL64:
 1048 0000 00B5     		push	{lr}
 1049              		.cfi_def_cfa_offset 4
 1050              		.cfi_offset 14, -4
 1051 0002 084B     		ldr	r3, .L117
 1052 0004 83B0     		sub	sp, sp, #12
 1053              		.cfi_def_cfa_offset 16
 1054              		.loc 1 243 0
 1055 0006 1A68     		ldr	r2, [r3]
 1056 0008 0192     		str	r2, [sp, #4]
 1057              		.loc 1 244 0
 1058 000a 019A     		ldr	r2, [sp, #4]
 1059 000c 1B68     		ldr	r3, [r3]
 1060 000e 9A42     		cmp	r2, r3
 1061 0010 06D1     		bne	.L116
 1062 0012 0146     		mov	r1, r0
 1063 0014 0448     		ldr	r0, .L117+4
 1064              	.LVL65:
 1065              		.loc 1 245 0
 1066 0016 03B0     		add	sp, sp, #12
 1067              		.cfi_remember_state
 1068              		.cfi_def_cfa_offset 4
 1069              		@ sp needed
 1070 0018 5DF804EB 		ldr	lr, [sp], #4
 1071              		.cfi_restore 14
 1072              		.cfi_def_cfa_offset 0
 1073              		.loc 1 244 0
 1074 001c FFF7FEBF 		b	motor_set_speed
 1075              	.LVL66:
 1076              	.L116:
 1077              		.cfi_restore_state
 1078 0020 FFF7FEFF 		bl	__stack_chk_fail
 1079              	.LVL67:
 1080              	.L118:
 1081              		.align	2
 1082              	.L117:
 1083 0024 00000000 		.word	__stack_chk_guard
ARM GAS  /var/folders/0b/rh7d8qts4ys3rdpl8xd_0jkm0000gn/T//ccT1yIt8.s 			page 20


 1084 0028 00000000 		.word	.LANCHOR3
 1085              		.cfi_endproc
 1086              	.LFE267:
 1087              		.size	left_motor_set_speed, .-left_motor_set_speed
 1088              		.section	.text.right_motor_set_speed,"ax",%progbits
 1089              		.align	1
 1090              		.p2align 4,,15
 1091              		.global	right_motor_set_speed
 1092              		.syntax unified
 1093              		.thumb
 1094              		.thumb_func
 1095              		.fpu fpv4-sp-d16
 1096              		.type	right_motor_set_speed, %function
 1097              	right_motor_set_speed:
 1098              	.LFB268:
 1099              		.loc 1 247 0
 1100              		.cfi_startproc
 1101              		@ args = 0, pretend = 0, frame = 8
 1102              		@ frame_needed = 0, uses_anonymous_args = 0
 1103              	.LVL68:
 1104 0000 00B5     		push	{lr}
 1105              		.cfi_def_cfa_offset 4
 1106              		.cfi_offset 14, -4
 1107 0002 084B     		ldr	r3, .L124
 1108 0004 83B0     		sub	sp, sp, #12
 1109              		.cfi_def_cfa_offset 16
 1110              		.loc 1 247 0
 1111 0006 1A68     		ldr	r2, [r3]
 1112 0008 0192     		str	r2, [sp, #4]
 1113              		.loc 1 248 0
 1114 000a 019A     		ldr	r2, [sp, #4]
 1115 000c 1B68     		ldr	r3, [r3]
 1116 000e 9A42     		cmp	r2, r3
 1117 0010 06D1     		bne	.L123
 1118 0012 0146     		mov	r1, r0
 1119 0014 0448     		ldr	r0, .L124+4
 1120              	.LVL69:
 1121              		.loc 1 249 0
 1122 0016 03B0     		add	sp, sp, #12
 1123              		.cfi_remember_state
 1124              		.cfi_def_cfa_offset 4
 1125              		@ sp needed
 1126 0018 5DF804EB 		ldr	lr, [sp], #4
 1127              		.cfi_restore 14
 1128              		.cfi_def_cfa_offset 0
 1129              		.loc 1 248 0
 1130 001c FFF7FEBF 		b	motor_set_speed
 1131              	.LVL70:
 1132              	.L123:
 1133              		.cfi_restore_state
 1134 0020 FFF7FEFF 		bl	__stack_chk_fail
 1135              	.LVL71:
 1136              	.L125:
 1137              		.align	2
 1138              	.L124:
 1139 0024 00000000 		.word	__stack_chk_guard
 1140 0028 00000000 		.word	.LANCHOR0
ARM GAS  /var/folders/0b/rh7d8qts4ys3rdpl8xd_0jkm0000gn/T//ccT1yIt8.s 			page 21


 1141              		.cfi_endproc
 1142              	.LFE268:
 1143              		.size	right_motor_set_speed, .-right_motor_set_speed
 1144              		.section	.text.left_motor_get_pos,"ax",%progbits
 1145              		.align	1
 1146              		.p2align 4,,15
 1147              		.global	left_motor_get_pos
 1148              		.syntax unified
 1149              		.thumb
 1150              		.thumb_func
 1151              		.fpu fpv4-sp-d16
 1152              		.type	left_motor_get_pos, %function
 1153              	left_motor_get_pos:
 1154              	.LFB269:
 1155              		.loc 1 251 0
 1156              		.cfi_startproc
 1157              		@ args = 0, pretend = 0, frame = 8
 1158              		@ frame_needed = 0, uses_anonymous_args = 0
 1159 0000 00B5     		push	{lr}
 1160              		.cfi_def_cfa_offset 4
 1161              		.cfi_offset 14, -4
 1162 0002 094B     		ldr	r3, .L130
 1163              		.loc 1 252 0
 1164 0004 094A     		ldr	r2, .L130+4
 1165              		.loc 1 251 0
 1166 0006 1968     		ldr	r1, [r3]
 1167              		.loc 1 252 0
 1168 0008 5068     		ldr	r0, [r2, #4]
 1169              		.loc 1 251 0
 1170 000a 83B0     		sub	sp, sp, #12
 1171              		.cfi_def_cfa_offset 16
 1172              		.loc 1 252 0
 1173 000c 00EBD070 		add	r0, r0, r0, lsr #31
 1174              		.loc 1 251 0
 1175 0010 0191     		str	r1, [sp, #4]
 1176              		.loc 1 253 0
 1177 0012 019A     		ldr	r2, [sp, #4]
 1178 0014 1B68     		ldr	r3, [r3]
 1179 0016 9A42     		cmp	r2, r3
 1180 0018 03D1     		bne	.L129
 1181 001a 4010     		asrs	r0, r0, #1
 1182 001c 03B0     		add	sp, sp, #12
 1183              		.cfi_remember_state
 1184              		.cfi_def_cfa_offset 4
 1185              		@ sp needed
 1186 001e 5DF804FB 		ldr	pc, [sp], #4
 1187              	.L129:
 1188              		.cfi_restore_state
 1189 0022 FFF7FEFF 		bl	__stack_chk_fail
 1190              	.LVL72:
 1191              	.L131:
 1192 0026 00BF     		.align	2
 1193              	.L130:
 1194 0028 00000000 		.word	__stack_chk_guard
 1195 002c 00000000 		.word	.LANCHOR3
 1196              		.cfi_endproc
 1197              	.LFE269:
ARM GAS  /var/folders/0b/rh7d8qts4ys3rdpl8xd_0jkm0000gn/T//ccT1yIt8.s 			page 22


 1198              		.size	left_motor_get_pos, .-left_motor_get_pos
 1199              		.section	.text.right_motor_get_pos,"ax",%progbits
 1200              		.align	1
 1201              		.p2align 4,,15
 1202              		.global	right_motor_get_pos
 1203              		.syntax unified
 1204              		.thumb
 1205              		.thumb_func
 1206              		.fpu fpv4-sp-d16
 1207              		.type	right_motor_get_pos, %function
 1208              	right_motor_get_pos:
 1209              	.LFB270:
 1210              		.loc 1 255 0
 1211              		.cfi_startproc
 1212              		@ args = 0, pretend = 0, frame = 8
 1213              		@ frame_needed = 0, uses_anonymous_args = 0
 1214 0000 00B5     		push	{lr}
 1215              		.cfi_def_cfa_offset 4
 1216              		.cfi_offset 14, -4
 1217 0002 094B     		ldr	r3, .L136
 1218              		.loc 1 256 0
 1219 0004 094A     		ldr	r2, .L136+4
 1220              		.loc 1 255 0
 1221 0006 1968     		ldr	r1, [r3]
 1222              		.loc 1 256 0
 1223 0008 5068     		ldr	r0, [r2, #4]
 1224              		.loc 1 255 0
 1225 000a 83B0     		sub	sp, sp, #12
 1226              		.cfi_def_cfa_offset 16
 1227              		.loc 1 256 0
 1228 000c 00EBD070 		add	r0, r0, r0, lsr #31
 1229              		.loc 1 255 0
 1230 0010 0191     		str	r1, [sp, #4]
 1231              		.loc 1 257 0
 1232 0012 019A     		ldr	r2, [sp, #4]
 1233 0014 1B68     		ldr	r3, [r3]
 1234 0016 9A42     		cmp	r2, r3
 1235 0018 03D1     		bne	.L135
 1236 001a 4010     		asrs	r0, r0, #1
 1237 001c 03B0     		add	sp, sp, #12
 1238              		.cfi_remember_state
 1239              		.cfi_def_cfa_offset 4
 1240              		@ sp needed
 1241 001e 5DF804FB 		ldr	pc, [sp], #4
 1242              	.L135:
 1243              		.cfi_restore_state
 1244 0022 FFF7FEFF 		bl	__stack_chk_fail
 1245              	.LVL73:
 1246              	.L137:
 1247 0026 00BF     		.align	2
 1248              	.L136:
 1249 0028 00000000 		.word	__stack_chk_guard
 1250 002c 00000000 		.word	.LANCHOR0
 1251              		.cfi_endproc
 1252              	.LFE270:
 1253              		.size	right_motor_get_pos, .-right_motor_get_pos
 1254              		.section	.text.left_motor_set_pos,"ax",%progbits
ARM GAS  /var/folders/0b/rh7d8qts4ys3rdpl8xd_0jkm0000gn/T//ccT1yIt8.s 			page 23


 1255              		.align	1
 1256              		.p2align 4,,15
 1257              		.global	left_motor_set_pos
 1258              		.syntax unified
 1259              		.thumb
 1260              		.thumb_func
 1261              		.fpu fpv4-sp-d16
 1262              		.type	left_motor_set_pos, %function
 1263              	left_motor_set_pos:
 1264              	.LFB271:
 1265              		.loc 1 259 0
 1266              		.cfi_startproc
 1267              		@ args = 0, pretend = 0, frame = 8
 1268              		@ frame_needed = 0, uses_anonymous_args = 0
 1269              	.LVL74:
 1270 0000 00B5     		push	{lr}
 1271              		.cfi_def_cfa_offset 4
 1272              		.cfi_offset 14, -4
 1273 0002 084B     		ldr	r3, .L142
 1274              		.loc 1 260 0
 1275 0004 0849     		ldr	r1, .L142+4
 1276              		.loc 1 259 0
 1277 0006 1A68     		ldr	r2, [r3]
 1278 0008 83B0     		sub	sp, sp, #12
 1279              		.cfi_def_cfa_offset 16
 1280              		.loc 1 260 0
 1281 000a 4000     		lsls	r0, r0, #1
 1282              	.LVL75:
 1283              		.loc 1 259 0
 1284 000c 0192     		str	r2, [sp, #4]
 1285              		.loc 1 261 0
 1286 000e 019A     		ldr	r2, [sp, #4]
 1287 0010 1B68     		ldr	r3, [r3]
 1288              		.loc 1 260 0
 1289 0012 4860     		str	r0, [r1, #4]
 1290              		.loc 1 261 0
 1291 0014 9A42     		cmp	r2, r3
 1292 0016 02D1     		bne	.L141
 1293 0018 03B0     		add	sp, sp, #12
 1294              		.cfi_remember_state
 1295              		.cfi_def_cfa_offset 4
 1296              		@ sp needed
 1297 001a 5DF804FB 		ldr	pc, [sp], #4
 1298              	.L141:
 1299              		.cfi_restore_state
 1300 001e FFF7FEFF 		bl	__stack_chk_fail
 1301              	.LVL76:
 1302              	.L143:
 1303 0022 00BF     		.align	2
 1304              	.L142:
 1305 0024 00000000 		.word	__stack_chk_guard
 1306 0028 00000000 		.word	.LANCHOR3
 1307              		.cfi_endproc
 1308              	.LFE271:
 1309              		.size	left_motor_set_pos, .-left_motor_set_pos
 1310              		.section	.text.right_motor_set_pos,"ax",%progbits
 1311              		.align	1
ARM GAS  /var/folders/0b/rh7d8qts4ys3rdpl8xd_0jkm0000gn/T//ccT1yIt8.s 			page 24


 1312              		.p2align 4,,15
 1313              		.global	right_motor_set_pos
 1314              		.syntax unified
 1315              		.thumb
 1316              		.thumb_func
 1317              		.fpu fpv4-sp-d16
 1318              		.type	right_motor_set_pos, %function
 1319              	right_motor_set_pos:
 1320              	.LFB272:
 1321              		.loc 1 263 0
 1322              		.cfi_startproc
 1323              		@ args = 0, pretend = 0, frame = 8
 1324              		@ frame_needed = 0, uses_anonymous_args = 0
 1325              	.LVL77:
 1326 0000 00B5     		push	{lr}
 1327              		.cfi_def_cfa_offset 4
 1328              		.cfi_offset 14, -4
 1329 0002 084B     		ldr	r3, .L148
 1330              		.loc 1 264 0
 1331 0004 0849     		ldr	r1, .L148+4
 1332              		.loc 1 263 0
 1333 0006 1A68     		ldr	r2, [r3]
 1334 0008 83B0     		sub	sp, sp, #12
 1335              		.cfi_def_cfa_offset 16
 1336              		.loc 1 264 0
 1337 000a 4000     		lsls	r0, r0, #1
 1338              	.LVL78:
 1339              		.loc 1 263 0
 1340 000c 0192     		str	r2, [sp, #4]
 1341              		.loc 1 265 0
 1342 000e 019A     		ldr	r2, [sp, #4]
 1343 0010 1B68     		ldr	r3, [r3]
 1344              		.loc 1 264 0
 1345 0012 4860     		str	r0, [r1, #4]
 1346              		.loc 1 265 0
 1347 0014 9A42     		cmp	r2, r3
 1348 0016 02D1     		bne	.L147
 1349 0018 03B0     		add	sp, sp, #12
 1350              		.cfi_remember_state
 1351              		.cfi_def_cfa_offset 4
 1352              		@ sp needed
 1353 001a 5DF804FB 		ldr	pc, [sp], #4
 1354              	.L147:
 1355              		.cfi_restore_state
 1356 001e FFF7FEFF 		bl	__stack_chk_fail
 1357              	.LVL79:
 1358              	.L149:
 1359 0022 00BF     		.align	2
 1360              	.L148:
 1361 0024 00000000 		.word	__stack_chk_guard
 1362 0028 00000000 		.word	.LANCHOR0
 1363              		.cfi_endproc
 1364              	.LFE272:
 1365              		.size	right_motor_set_pos, .-right_motor_set_pos
 1366              		.section	.text.rotate_angle,"ax",%progbits
 1367              		.align	1
 1368              		.p2align 4,,15
ARM GAS  /var/folders/0b/rh7d8qts4ys3rdpl8xd_0jkm0000gn/T//ccT1yIt8.s 			page 25


 1369              		.global	rotate_angle
 1370              		.syntax unified
 1371              		.thumb
 1372              		.thumb_func
 1373              		.fpu fpv4-sp-d16
 1374              		.type	rotate_angle, %function
 1375              	rotate_angle:
 1376              	.LFB273:
 1377              		.loc 1 267 0
 1378              		.cfi_startproc
 1379              		@ args = 0, pretend = 0, frame = 8
 1380              		@ frame_needed = 0, uses_anonymous_args = 0
 1381              	.LVL80:
 1382 0000 10B5     		push	{r4, lr}
 1383              		.cfi_def_cfa_offset 8
 1384              		.cfi_offset 4, -8
 1385              		.cfi_offset 14, -4
 1386 0002 2DED048B 		vpush.64	{d8, d9}
 1387              		.cfi_def_cfa_offset 24
 1388              		.cfi_offset 80, -24
 1389              		.cfi_offset 81, -20
 1390              		.cfi_offset 82, -16
 1391              		.cfi_offset 83, -12
 1392 0006 654C     		ldr	r4, .L184
 1393 0008 82B0     		sub	sp, sp, #8
 1394              		.cfi_def_cfa_offset 32
 1395              		.loc 1 268 0
 1396 000a B5EEC00A 		vcmpe.f32	s0, #0
 1397              		.loc 1 267 0
 1398 000e 2368     		ldr	r3, [r4]
 1399 0010 0193     		str	r3, [sp, #4]
 1400              		.loc 1 268 0
 1401 0012 F1EE10FA 		vmrs	APSR_nzcv, FPSCR
 1402              		.loc 1 267 0
 1403 0016 B0EE408A 		vmov.f32	s16, s0
 1404 001a B0EE609A 		vmov.f32	s18, s1
 1405              		.loc 1 268 0
 1406 001e 40F38F80 		ble	.L176
 1407              		.loc 1 269 0
 1408 0022 9FED5F7A 		vldr.32	s14, .L184+4
 1409 0026 C0EE077A 		vdiv.f32	s15, s0, s14
 1410 002a 4FF4B473 		mov	r3, #360
 1411 002e FDEEE77A 		vcvt.s32.f32	s15, s15
 1412 0032 17EE902A 		vmov	r2, s15	@ int
 1413 0036 03FB02F3 		mul	r3, r3, r2
 1414 003a 07EE903A 		vmov	s15, r3	@ int
 1415 003e F8EEE77A 		vcvt.f32.s32	s15, s15
 1416 0042 30EE678A 		vsub.f32	s16, s0, s15
 1417              	.LVL81:
 1418              	.L153:
 1419              		.loc 1 272 0
 1420 0046 DFED577A 		vldr.32	s15, .L184+8
 1421 004a B4EEE78A 		vcmpe.f32	s16, s15
 1422 004e F1EE10FA 		vmrs	APSR_nzcv, FPSCR
 1423 0052 4BDD     		ble	.L177
 1424              		.loc 1 273 0
 1425 0054 DFED527A 		vldr.32	s15, .L184+4
ARM GAS  /var/folders/0b/rh7d8qts4ys3rdpl8xd_0jkm0000gn/T//ccT1yIt8.s 			page 26


 1426 0058 38EE678A 		vsub.f32	s16, s16, s15
 1427              	.LVL82:
 1428              	.L157:
 1429              		.loc 1 277 0
 1430 005c DFED527A 		vldr.32	s15, .L184+12
 1431 0060 9FED526A 		vldr.32	s12, .L184+16
 1432              		.loc 1 278 0
 1433 0064 9FED527A 		vldr.32	s14, .L184+20
 1434              		.loc 1 277 0
 1435 0068 68EE277A 		vmul.f32	s15, s16, s15
 1436 006c C7EE866A 		vdiv.f32	s13, s15, s12
 1437              	.LVL83:
 1438              		.loc 1 279 0
 1439 0070 FDEEC87A 		vcvt.s32.f32	s15, s16
 1440              		.loc 1 278 0
 1441 0074 C6EE878A 		vdiv.f32	s17, s13, s14
 1442              	.LVL84:
 1443              		.loc 1 279 0
 1444 0078 17EE903A 		vmov	r3, s15	@ int
 1445 007c 002B     		cmp	r3, #0
 1446 007e 41DC     		bgt	.L180
 1447              		.loc 1 283 0
 1448 0080 7FD1     		bne	.L181
 1449              	.LVL85:
 1450              	.L160:
 1451              		.loc 1 288 0
 1452 0082 DFED4C7A 		vldr.32	s15, .L184+24
 1453 0086 68EEA77A 		vmul.f32	s15, s17, s15
 1454              	.LVL86:
 1455 008a F0EEE77A 		vabs.f32	s15, s15
 1456              	.LVL87:
 1457              		.loc 1 289 0
 1458 008e FCEEE77A 		vcvt.u32.f32	s15, s15
 1459              	.LVL88:
 1460 0092 17EE900A 		vmov	r0, s15	@ int
 1461 0096 0028     		cmp	r0, #0
 1462 0098 66D1     		bne	.L182
 1463              	.L161:
 1464              	.LVL89:
 1465              	.LBB34:
 1466              	.LBB35:
 1467              		.loc 1 248 0
 1468 009a 0021     		movs	r1, #0
 1469 009c 4648     		ldr	r0, .L184+28
 1470 009e FFF7FEFF 		bl	motor_set_speed
 1471              	.LVL90:
 1472              	.LBE35:
 1473              	.LBE34:
 1474              	.LBB36:
 1475              	.LBB37:
 1476              		.loc 1 244 0
 1477 00a2 0021     		movs	r1, #0
 1478 00a4 4548     		ldr	r0, .L184+32
 1479 00a6 FFF7FEFF 		bl	motor_set_speed
 1480              	.LVL91:
 1481              	.LBE37:
 1482              	.LBE36:
ARM GAS  /var/folders/0b/rh7d8qts4ys3rdpl8xd_0jkm0000gn/T//ccT1yIt8.s 			page 27


 1483              		.loc 1 293 0
 1484 00aa 38EE090A 		vadd.f32	s0, s16, s18
 1485 00ae B5EEC00A 		vcmpe.f32	s0, #0
 1486 00b2 F1EE10FA 		vmrs	APSR_nzcv, FPSCR
 1487 00b6 2FDD     		ble	.L178
 1488              		.loc 1 294 0
 1489 00b8 9FED397A 		vldr.32	s14, .L184+4
 1490 00bc C0EE077A 		vdiv.f32	s15, s0, s14
 1491 00c0 4FF4B473 		mov	r3, #360
 1492 00c4 FDEEE77A 		vcvt.s32.f32	s15, s15
 1493 00c8 17EE902A 		vmov	r2, s15	@ int
 1494 00cc 03FB02F3 		mul	r3, r3, r2
 1495 00d0 07EE903A 		vmov	s15, r3	@ int
 1496 00d4 F8EEE77A 		vcvt.f32.s32	s15, s15
 1497 00d8 30EE670A 		vsub.f32	s0, s0, s15
 1498              	.LVL92:
 1499              	.L150:
 1500              		.loc 1 301 0
 1501 00dc 019A     		ldr	r2, [sp, #4]
 1502 00de 2368     		ldr	r3, [r4]
 1503 00e0 9A42     		cmp	r2, r3
 1504 00e2 58D1     		bne	.L183
 1505 00e4 02B0     		add	sp, sp, #8
 1506              		.cfi_remember_state
 1507              		.cfi_def_cfa_offset 24
 1508              		@ sp needed
 1509 00e6 BDEC048B 		vldm	sp!, {d8-d9}
 1510              		.cfi_restore 82
 1511              		.cfi_restore 83
 1512              		.cfi_restore 80
 1513              		.cfi_restore 81
 1514              		.cfi_def_cfa_offset 8
 1515              	.LVL93:
 1516 00ea 10BD     		pop	{r4, pc}
 1517              	.LVL94:
 1518              	.L177:
 1519              		.cfi_restore_state
 1520              		.loc 1 274 0
 1521 00ec DFED347A 		vldr.32	s15, .L184+36
 1522 00f0 B4EEE78A 		vcmpe.f32	s16, s15
 1523 00f4 F1EE10FA 		vmrs	APSR_nzcv, FPSCR
 1524              		.loc 1 275 0
 1525 00f8 44BF     		itt	mi
 1526 00fa DFED297A 		vldrmi.32	s15, .L184+4
 1527 00fe 38EE278A 		vaddmi.f32	s16, s16, s15
 1528              	.LVL95:
 1529 0102 ABE7     		b	.L157
 1530              	.LVL96:
 1531              	.L180:
 1532              	.LBB38:
 1533              	.LBB39:
 1534              		.loc 1 248 0
 1535 0104 4FF4FA71 		mov	r1, #500
 1536 0108 2B48     		ldr	r0, .L184+28
 1537 010a FFF7FEFF 		bl	motor_set_speed
 1538              	.LVL97:
 1539              	.LBE39:
ARM GAS  /var/folders/0b/rh7d8qts4ys3rdpl8xd_0jkm0000gn/T//ccT1yIt8.s 			page 28


 1540              	.LBE38:
 1541              	.LBB40:
 1542              	.LBB41:
 1543              		.loc 1 244 0
 1544 010e 2D49     		ldr	r1, .L184+40
 1545 0110 2A48     		ldr	r0, .L184+32
 1546 0112 FFF7FEFF 		bl	motor_set_speed
 1547              	.LVL98:
 1548 0116 B4E7     		b	.L160
 1549              	.LVL99:
 1550              	.L178:
 1551              	.LBE41:
 1552              	.LBE40:
 1553              		.loc 1 295 0
 1554 0118 E0D5     		bpl	.L150
 1555              		.loc 1 296 0
 1556 011a 9FED217A 		vldr.32	s14, .L184+4
 1557 011e C0EE077A 		vdiv.f32	s15, s0, s14
 1558 0122 4FF4B473 		mov	r3, #360
 1559 0126 FDEEE77A 		vcvt.s32.f32	s15, s15
 1560 012a 17EE902A 		vmov	r2, s15	@ int
 1561 012e 03FB02F3 		mul	r3, r3, r2
 1562 0132 07EE903A 		vmov	s15, r3	@ int
 1563 0136 F8EEE77A 		vcvt.f32.s32	s15, s15
 1564 013a 30EE270A 		vadd.f32	s0, s0, s15
 1565              	.LVL100:
 1566              		.loc 1 299 0
 1567 013e CDE7     		b	.L150
 1568              	.LVL101:
 1569              	.L176:
 1570              		.loc 1 270 0
 1571 0140 81D5     		bpl	.L153
 1572              		.loc 1 271 0
 1573 0142 9FED177A 		vldr.32	s14, .L184+4
 1574 0146 C0EE077A 		vdiv.f32	s15, s0, s14
 1575 014a 4FF4B473 		mov	r3, #360
 1576 014e FDEEE77A 		vcvt.s32.f32	s15, s15
 1577 0152 17EE902A 		vmov	r2, s15	@ int
 1578 0156 03FB02F3 		mul	r3, r3, r2
 1579 015a 07EE903A 		vmov	s15, r3	@ int
 1580 015e F8EEE77A 		vcvt.f32.s32	s15, s15
 1581 0162 30EE278A 		vadd.f32	s16, s0, s15
 1582              	.LVL102:
 1583 0166 6EE7     		b	.L153
 1584              	.LVL103:
 1585              	.L182:
 1586              		.loc 1 290 0
 1587 0168 4FF47A73 		mov	r3, #1000
 1588 016c 03FB00F0 		mul	r0, r3, r0
 1589 0170 154B     		ldr	r3, .L184+44
 1590 0172 00F2E730 		addw	r0, r0, #999
 1591 0176 A3FB0030 		umull	r3, r0, r3, r0
 1592 017a 8009     		lsrs	r0, r0, #6
 1593 017c FFF7FEFF 		bl	chThdSleep
 1594              	.LVL104:
 1595 0180 8BE7     		b	.L161
 1596              	.LVL105:
ARM GAS  /var/folders/0b/rh7d8qts4ys3rdpl8xd_0jkm0000gn/T//ccT1yIt8.s 			page 29


 1597              	.L181:
 1598              	.LBB42:
 1599              	.LBB43:
 1600              		.loc 1 248 0
 1601 0182 1049     		ldr	r1, .L184+40
 1602 0184 0C48     		ldr	r0, .L184+28
 1603 0186 FFF7FEFF 		bl	motor_set_speed
 1604              	.LVL106:
 1605              	.LBE43:
 1606              	.LBE42:
 1607              	.LBB44:
 1608              	.LBB45:
 1609              		.loc 1 244 0
 1610 018a 4FF4FA71 		mov	r1, #500
 1611 018e 0B48     		ldr	r0, .L184+32
 1612 0190 FFF7FEFF 		bl	motor_set_speed
 1613              	.LVL107:
 1614 0194 75E7     		b	.L160
 1615              	.LVL108:
 1616              	.L183:
 1617              	.LBE45:
 1618              	.LBE44:
 1619              		.loc 1 301 0
 1620 0196 FFF7FEFF 		bl	__stack_chk_fail
 1621              	.LVL109:
 1622              	.L185:
 1623 019a 00BF     		.align	2
 1624              	.L184:
 1625 019c 00000000 		.word	__stack_chk_guard
 1626 01a0 0000B443 		.word	1135869952
 1627 01a4 00003443 		.word	1127481344
 1628 01a8 0B4F8346 		.word	1183010571
 1629 01ac 00409245 		.word	1167212544
 1630 01b0 0000FA43 		.word	1140457472
 1631 01b4 00007A44 		.word	1148846080
 1632 01b8 00000000 		.word	.LANCHOR0
 1633 01bc 00000000 		.word	.LANCHOR3
 1634 01c0 000034C3 		.word	3274964992
 1635 01c4 0CFEFFFF 		.word	-500
 1636 01c8 D34D6210 		.word	274877907
 1637              		.cfi_endproc
 1638              	.LFE273:
 1639              		.size	rotate_angle, .-rotate_angle
 1640              		.global	__aeabi_f2d
 1641              		.global	__aeabi_dmul
 1642              		.global	__aeabi_d2iz
 1643              		.section	.text.move,"ax",%progbits
 1644              		.align	1
 1645              		.p2align 4,,15
 1646              		.global	move
 1647              		.syntax unified
 1648              		.thumb
 1649              		.thumb_func
 1650              		.fpu fpv4-sp-d16
 1651              		.type	move, %function
 1652              	move:
 1653              	.LFB274:
ARM GAS  /var/folders/0b/rh7d8qts4ys3rdpl8xd_0jkm0000gn/T//ccT1yIt8.s 			page 30


 1654              		.loc 1 303 0
 1655              		.cfi_startproc
 1656              		@ args = 0, pretend = 0, frame = 8
 1657              		@ frame_needed = 0, uses_anonymous_args = 0
 1658              	.LVL110:
 1659              		.loc 1 304 0
 1660 0000 DFED287A 		vldr.32	s15, .L195
 1661 0004 DFED286A 		vldr.32	s13, .L195+4
 1662 0008 9FED286A 		vldr.32	s12, .L195+8
 1663 000c 9FED287A 		vldr.32	s14, .L195+12
 1664 0010 20EE270A 		vmul.f32	s0, s0, s15
 1665              	.LVL111:
 1666              		.loc 1 303 0
 1667 0014 30B5     		push	{r4, r5, lr}
 1668              		.cfi_def_cfa_offset 12
 1669              		.cfi_offset 4, -12
 1670              		.cfi_offset 5, -8
 1671              		.cfi_offset 14, -4
 1672              		.loc 1 304 0
 1673 0016 20EE260A 		vmul.f32	s0, s0, s13
 1674              		.loc 1 303 0
 1675 001a 264D     		ldr	r5, .L195+16
 1676              		.loc 1 304 0
 1677 001c C0EE066A 		vdiv.f32	s13, s0, s12
 1678              		.loc 1 303 0
 1679 0020 83B0     		sub	sp, sp, #12
 1680              		.cfi_def_cfa_offset 24
 1681              		.loc 1 303 0
 1682 0022 2B68     		ldr	r3, [r5]
 1683 0024 0193     		str	r3, [sp, #4]
 1684              	.LVL112:
 1685              		.loc 1 304 0
 1686 0026 C6EE877A 		vdiv.f32	s15, s13, s14
 1687              		.loc 1 305 0
 1688 002a F0EEE77A 		vabs.f32	s15, s15
 1689 002e 17EE900A 		vmov	r0, s15
 1690 0032 FFF7FEFF 		bl	__aeabi_f2d
 1691              	.LVL113:
 1692 0036 0022     		movs	r2, #0
 1693 0038 1F4B     		ldr	r3, .L195+20
 1694 003a FFF7FEFF 		bl	__aeabi_dmul
 1695              	.LVL114:
 1696 003e FFF7FEFF 		bl	__aeabi_d2iz
 1697              	.LVL115:
 1698 0042 07EE900A 		vmov	s15, r0	@ int
 1699 0046 F8EEE77A 		vcvt.f32.s32	s15, s15
 1700              	.LVL116:
 1701              		.loc 1 306 0
 1702 004a FCEEE77A 		vcvt.u32.f32	s15, s15
 1703              	.LVL117:
 1704 004e 17EE904A 		vmov	r4, s15	@ int
 1705 0052 ACB1     		cbz	r4, .L187
 1706              	.LVL118:
 1707              	.LBB46:
 1708              	.LBB47:
 1709              		.loc 1 248 0
 1710 0054 40F22621 		movw	r1, #550
ARM GAS  /var/folders/0b/rh7d8qts4ys3rdpl8xd_0jkm0000gn/T//ccT1yIt8.s 			page 31


 1711 0058 1848     		ldr	r0, .L195+24
 1712              	.LVL119:
 1713 005a FFF7FEFF 		bl	motor_set_speed
 1714              	.LVL120:
 1715              	.LBE47:
 1716              	.LBE46:
 1717              	.LBB48:
 1718              	.LBB49:
 1719              		.loc 1 244 0
 1720 005e 1848     		ldr	r0, .L195+28
 1721 0060 40F22621 		movw	r1, #550
 1722 0064 FFF7FEFF 		bl	motor_set_speed
 1723              	.LVL121:
 1724              	.LBE49:
 1725              	.LBE48:
 1726              		.loc 1 309 0
 1727 0068 4FF47A70 		mov	r0, #1000
 1728 006c 00FB04F0 		mul	r0, r0, r4
 1729 0070 144C     		ldr	r4, .L195+32
 1730 0072 00F2E730 		addw	r0, r0, #999
 1731 0076 A4FB0030 		umull	r3, r0, r4, r0
 1732 007a 8009     		lsrs	r0, r0, #6
 1733 007c FFF7FEFF 		bl	chThdSleep
 1734              	.LVL122:
 1735              	.L187:
 1736              	.LBB50:
 1737              	.LBB51:
 1738              		.loc 1 248 0
 1739 0080 0021     		movs	r1, #0
 1740 0082 0E48     		ldr	r0, .L195+24
 1741 0084 FFF7FEFF 		bl	motor_set_speed
 1742              	.LVL123:
 1743              	.LBE51:
 1744              	.LBE50:
 1745              	.LBB52:
 1746              	.LBB53:
 1747              		.loc 1 244 0
 1748 0088 019A     		ldr	r2, [sp, #4]
 1749 008a 2B68     		ldr	r3, [r5]
 1750 008c 9A42     		cmp	r2, r3
 1751 008e 06D1     		bne	.L194
 1752 0090 0B48     		ldr	r0, .L195+28
 1753 0092 0021     		movs	r1, #0
 1754              	.LBE53:
 1755              	.LBE52:
 1756              		.loc 1 314 0
 1757 0094 03B0     		add	sp, sp, #12
 1758              		.cfi_remember_state
 1759              		.cfi_def_cfa_offset 12
 1760              		@ sp needed
 1761 0096 BDE83040 		pop	{r4, r5, lr}
 1762              		.cfi_restore 14
 1763              		.cfi_restore 5
 1764              		.cfi_restore 4
 1765              		.cfi_def_cfa_offset 0
 1766              	.LBB55:
 1767              	.LBB54:
ARM GAS  /var/folders/0b/rh7d8qts4ys3rdpl8xd_0jkm0000gn/T//ccT1yIt8.s 			page 32


 1768              		.loc 1 244 0
 1769 009a FFF7FEBF 		b	motor_set_speed
 1770              	.LVL124:
 1771              	.L194:
 1772              		.cfi_restore_state
 1773 009e FFF7FEFF 		bl	__stack_chk_fail
 1774              	.LVL125:
 1775              	.L196:
 1776 00a2 00BF     		.align	2
 1777              	.L195:
 1778 00a4 280F6B3F 		.word	1063980840
 1779 00a8 00007A44 		.word	1148846080
 1780 00ac 00000243 		.word	1124204544
 1781 00b0 00800944 		.word	1141473280
 1782 00b4 00000000 		.word	__stack_chk_guard
 1783 00b8 00408F40 		.word	1083129856
 1784 00bc 00000000 		.word	.LANCHOR0
 1785 00c0 00000000 		.word	.LANCHOR3
 1786 00c4 D34D6210 		.word	274877907
 1787              	.LBE54:
 1788              	.LBE55:
 1789              		.cfi_endproc
 1790              	.LFE274:
 1791              		.size	move, .-move
 1792              		.section	.text.motors_init,"ax",%progbits
 1793              		.align	1
 1794              		.p2align 4,,15
 1795              		.global	motors_init
 1796              		.syntax unified
 1797              		.thumb
 1798              		.thumb_func
 1799              		.fpu fpv4-sp-d16
 1800              		.type	motors_init, %function
 1801              	motors_init:
 1802              	.LFB275:
 1803              		.loc 1 317 0
 1804              		.cfi_startproc
 1805              		@ args = 0, pretend = 0, frame = 8
 1806              		@ frame_needed = 0, uses_anonymous_args = 0
 1807 0000 2DE9F043 		push	{r4, r5, r6, r7, r8, r9, lr}
 1808              		.cfi_def_cfa_offset 28
 1809              		.cfi_offset 4, -28
 1810              		.cfi_offset 5, -24
 1811              		.cfi_offset 6, -20
 1812              		.cfi_offset 7, -16
 1813              		.cfi_offset 8, -12
 1814              		.cfi_offset 9, -8
 1815              		.cfi_offset 14, -4
 1816              		.loc 1 319 0
 1817 0004 234C     		ldr	r4, .L202
 1818              		.loc 1 317 0
 1819 0006 DFF8BC90 		ldr	r9, .L202+48
 1820              		.loc 1 322 0
 1821 000a 234A     		ldr	r2, .L202+4
 1822              		.loc 1 323 0
 1823 000c 234B     		ldr	r3, .L202+8
 1824              		.loc 1 327 0
ARM GAS  /var/folders/0b/rh7d8qts4ys3rdpl8xd_0jkm0000gn/T//ccT1yIt8.s 			page 33


 1825 000e 244D     		ldr	r5, .L202+12
 1826              		.loc 1 330 0
 1827 0010 2449     		ldr	r1, .L202+16
 1828              		.loc 1 317 0
 1829 0012 D9F80060 		ldr	r6, [r9]
 1830              		.loc 1 324 0
 1831 0016 2448     		ldr	r0, .L202+20
 1832              		.loc 1 322 0
 1833 0018 A260     		str	r2, [r4, #8]
 1834              		.loc 1 317 0
 1835 001a 83B0     		sub	sp, sp, #12
 1836              		.cfi_def_cfa_offset 40
 1837              		.loc 1 331 0
 1838 001c 234A     		ldr	r2, .L202+24
 1839              		.loc 1 323 0
 1840 001e E360     		str	r3, [r4, #12]
 1841              		.loc 1 332 0
 1842 0020 234B     		ldr	r3, .L202+28
 1843              		.loc 1 325 0
 1844 0022 DFF8A480 		ldr	r8, .L202+52
 1845              		.loc 1 333 0
 1846 0026 234F     		ldr	r7, .L202+32
 1847              		.loc 1 317 0
 1848 0028 0196     		str	r6, [sp, #4]
 1849              		.loc 1 324 0
 1850 002a 2061     		str	r0, [r4, #16]
 1851              		.loc 1 319 0
 1852 002c 0026     		movs	r6, #0
 1853              		.loc 1 336 0
 1854 002e 2248     		ldr	r0, .L202+36
 1855              		.loc 1 319 0
 1856 0030 2670     		strb	r6, [r4]
 1857              		.loc 1 332 0
 1858 0032 C5E90323 		strd	r2, r3, [r5, #12]
 1859              		.loc 1 330 0
 1860 0036 C5E90161 		strd	r6, r1, [r5, #4]
 1861              		.loc 1 320 0
 1862 003a 6670     		strb	r6, [r4, #1]
 1863              		.loc 1 321 0
 1864 003c 6660     		str	r6, [r4, #4]
 1865              		.loc 1 325 0
 1866 003e C4F81480 		str	r8, [r4, #20]
 1867              		.loc 1 327 0
 1868 0042 2E70     		strb	r6, [r5]
 1869              		.loc 1 328 0
 1870 0044 6E70     		strb	r6, [r5, #1]
 1871              		.loc 1 333 0
 1872 0046 6F61     		str	r7, [r5, #20]
 1873              		.loc 1 336 0
 1874 0048 FFF7FEFF 		bl	right_motor_update
 1875              	.LVL126:
 1876              		.loc 1 337 0
 1877 004c 1A48     		ldr	r0, .L202+36
 1878 004e FFF7FEFF 		bl	left_motor_update
 1879              	.LVL127:
 1880              		.loc 1 353 0
 1881 0052 1A49     		ldr	r1, .L202+40
ARM GAS  /var/folders/0b/rh7d8qts4ys3rdpl8xd_0jkm0000gn/T//ccT1yIt8.s 			page 34


 1882 0054 4046     		mov	r0, r8
 1883 0056 FFF7FEFF 		bl	pwmStart
 1884              	.LVL128:
 1885              		.loc 1 354 0
 1886 005a 4046     		mov	r0, r8
 1887 005c FFF7FEFF 		bl	pwmEnablePeriodicNotification
 1888              	.LVL129:
 1889              		.loc 1 369 0
 1890 0060 1749     		ldr	r1, .L202+44
 1891 0062 3846     		mov	r0, r7
 1892 0064 FFF7FEFF 		bl	pwmStart
 1893              	.LVL130:
 1894              		.loc 1 370 0
 1895 0068 3846     		mov	r0, r7
 1896 006a FFF7FEFF 		bl	pwmEnablePeriodicNotification
 1897              	.LVL131:
 1898              	.LBB56:
 1899              	.LBB57:
 1900              		.loc 1 248 0
 1901 006e 3146     		mov	r1, r6
 1902 0070 2046     		mov	r0, r4
 1903 0072 FFF7FEFF 		bl	motor_set_speed
 1904              	.LVL132:
 1905              	.LBE57:
 1906              	.LBE56:
 1907              	.LBB58:
 1908              	.LBB59:
 1909              		.loc 1 244 0
 1910 0076 019A     		ldr	r2, [sp, #4]
 1911 0078 D9F80030 		ldr	r3, [r9]
 1912 007c 9A42     		cmp	r2, r3
 1913 007e 06D1     		bne	.L201
 1914 0080 3146     		mov	r1, r6
 1915 0082 2846     		mov	r0, r5
 1916              	.LBE59:
 1917              	.LBE58:
 1918              		.loc 1 374 0
 1919 0084 03B0     		add	sp, sp, #12
 1920              		.cfi_remember_state
 1921              		.cfi_def_cfa_offset 28
 1922              		@ sp needed
 1923 0086 BDE8F043 		pop	{r4, r5, r6, r7, r8, r9, lr}
 1924              		.cfi_restore 14
 1925              		.cfi_restore 9
 1926              		.cfi_restore 8
 1927              		.cfi_restore 7
 1928              		.cfi_restore 6
 1929              		.cfi_restore 5
 1930              		.cfi_restore 4
 1931              		.cfi_def_cfa_offset 0
 1932              	.LBB61:
 1933              	.LBB60:
 1934              		.loc 1 244 0
 1935 008a FFF7FEBF 		b	motor_set_speed
 1936              	.LVL133:
 1937              	.L201:
 1938              		.cfi_restore_state
ARM GAS  /var/folders/0b/rh7d8qts4ys3rdpl8xd_0jkm0000gn/T//ccT1yIt8.s 			page 35


 1939 008e FFF7FEFF 		bl	__stack_chk_fail
 1940              	.LVL134:
 1941              	.L203:
 1942 0092 00BF     		.align	2
 1943              	.L202:
 1944 0094 00000000 		.word	.LANCHOR0
 1945 0098 00000000 		.word	right_motor_update
 1946 009c 00000000 		.word	right_motor_enable_power_save
 1947 00a0 00000000 		.word	.LANCHOR3
 1948 00a4 00000000 		.word	left_motor_update
 1949 00a8 00000000 		.word	right_motor_disable_power_save
 1950 00ac 00000000 		.word	left_motor_enable_power_save
 1951 00b0 00000000 		.word	left_motor_disable_power_save
 1952 00b4 00000000 		.word	PWMD4
 1953 00b8 00000000 		.word	.LANCHOR2
 1954 00bc 00000000 		.word	.LANCHOR4
 1955 00c0 00000000 		.word	.LANCHOR5
 1956 00c4 00000000 		.word	__stack_chk_guard
 1957 00c8 00000000 		.word	PWMD3
 1958              	.LBE60:
 1959              	.LBE61:
 1960              		.cfi_endproc
 1961              	.LFE275:
 1962              		.size	motors_init, .-motors_init
 1963              		.global	left_motor
 1964              		.global	right_motor
 1965              		.section	.bss.left_motor,"aw",%nobits
 1966              		.align	2
 1967              		.set	.LANCHOR3,. + 0
 1968              		.type	left_motor, %object
 1969              		.size	left_motor, 24
 1970              	left_motor:
 1971 0000 00000000 		.space	24
 1971      00000000 
 1971      00000000 
 1971      00000000 
 1971      00000000 
 1972              		.section	.bss.right_motor,"aw",%nobits
 1973              		.align	2
 1974              		.set	.LANCHOR0,. + 0
 1975              		.type	right_motor, %object
 1976              		.size	right_motor, 24
 1977              	right_motor:
 1978 0000 00000000 		.space	24
 1978      00000000 
 1978      00000000 
 1978      00000000 
 1978      00000000 
 1979              		.section	.rodata.pwmcfg_left_motor.10690,"a",%progbits
 1980              		.align	2
 1981              		.set	.LANCHOR5,. + 0
 1982              		.type	pwmcfg_left_motor.10690, %object
 1983              		.size	pwmcfg_left_motor.10690, 52
 1984              	pwmcfg_left_motor.10690:
 1985 0000 A0860100 		.word	100000
 1986 0004 FFFF0000 		.word	65535
 1987 0008 00000000 		.word	left_motor_timer_callback
ARM GAS  /var/folders/0b/rh7d8qts4ys3rdpl8xd_0jkm0000gn/T//ccT1yIt8.s 			page 36


 1988 000c 01000000 		.word	1
 1989 0010 00000000 		.word	left_motor_pwm_ch1_cb
 1990 0014 00000000 		.word	0
 1991 0018 00000000 		.word	0
 1992 001c 00000000 		.word	0
 1993 0020 00000000 		.word	0
 1994 0024 00000000 		.word	0
 1995 0028 00000000 		.word	0
 1996 002c 00000000 		.word	0
 1997 0030 00000000 		.space	4
 1998              		.section	.rodata.pwmcfg_right_motor.10689,"a",%progbits
 1999              		.align	2
 2000              		.set	.LANCHOR4,. + 0
 2001              		.type	pwmcfg_right_motor.10689, %object
 2002              		.size	pwmcfg_right_motor.10689, 52
 2003              	pwmcfg_right_motor.10689:
 2004 0000 A0860100 		.word	100000
 2005 0004 FFFF0000 		.word	65535
 2006 0008 00000000 		.word	right_motor_timer_callback
 2007 000c 01000000 		.word	1
 2008 0010 00000000 		.word	right_motor_pwm_ch1_cb
 2009 0014 00000000 		.word	0
 2010 0018 00000000 		.word	0
 2011 001c 00000000 		.word	0
 2012 0020 00000000 		.word	0
 2013 0024 00000000 		.word	0
 2014 0028 00000000 		.word	0
 2015 002c 00000000 		.word	0
 2016 0030 00000000 		.space	4
 2017              		.section	.rodata.step_halt,"a",%progbits
 2018              		.align	2
 2019              		.set	.LANCHOR2,. + 0
 2020              		.type	step_halt, %object
 2021              		.size	step_halt, 4
 2022              	step_halt:
 2023 0000 00000000 		.space	4
 2024              		.section	.rodata.step_table,"a",%progbits
 2025              		.align	2
 2026              		.set	.LANCHOR1,. + 0
 2027              		.type	step_table, %object
 2028              		.size	step_table, 32
 2029              	step_table:
 2030 0000 01       		.byte	1
 2031 0001 00       		.byte	0
 2032 0002 01       		.byte	1
 2033 0003 00       		.byte	0
 2034 0004 00       		.byte	0
 2035 0005 00       		.byte	0
 2036 0006 01       		.byte	1
 2037 0007 00       		.byte	0
 2038 0008 00       		.byte	0
 2039 0009 01       		.byte	1
 2040 000a 01       		.byte	1
 2041 000b 00       		.byte	0
 2042 000c 00       		.byte	0
 2043 000d 01       		.byte	1
 2044 000e 00       		.byte	0
ARM GAS  /var/folders/0b/rh7d8qts4ys3rdpl8xd_0jkm0000gn/T//ccT1yIt8.s 			page 37


 2045 000f 00       		.byte	0
 2046 0010 00       		.byte	0
 2047 0011 01       		.byte	1
 2048 0012 00       		.byte	0
 2049 0013 01       		.byte	1
 2050 0014 00       		.byte	0
 2051 0015 00       		.byte	0
 2052 0016 00       		.byte	0
 2053 0017 01       		.byte	1
 2054 0018 01       		.byte	1
 2055 0019 00       		.byte	0
 2056 001a 00       		.byte	0
 2057 001b 01       		.byte	1
 2058 001c 01       		.byte	1
 2059 001d 00       		.byte	0
 2060 001e 00       		.byte	0
 2061 001f 00       		.byte	0
 2062              		.text
 2063              	.Letext0:
 2064              		.file 2 "/Applications/Eclipse_e-puck2.app/Contents/Eclipse_e-puck2/Tools/gcc-arm-none-eabi-7-2017
 2065              		.file 3 "/Applications/Eclipse_e-puck2.app/Contents/Eclipse_e-puck2/Tools/gcc-arm-none-eabi-7-2017
 2066              		.file 4 "/Applications/Eclipse_e-puck2.app/Contents/Eclipse_e-puck2/Tools/gcc-arm-none-eabi-7-2017
 2067              		.file 5 "../../lib/e-puck2_main-processor/ChibiOS//os/rt/ports/ARMCMx/compilers/GCC/chtypes.h"
 2068              		.file 6 "../../lib/e-puck2_main-processor/ChibiOS//os/rt/include/chsystypes.h"
 2069              		.file 7 "../../lib/e-puck2_main-processor/ChibiOS//os/rt/include/chschd.h"
 2070              		.file 8 "../../lib/e-puck2_main-processor/ChibiOS//os/ext/CMSIS/include/core_cm4.h"
 2071              		.file 9 "../../lib/e-puck2_main-processor/ChibiOS//os/ext/CMSIS/ST/system_stm32f4xx.h"
 2072              		.file 10 "../../lib/e-puck2_main-processor/ChibiOS//os/ext/CMSIS/ST/stm32f407xx.h"
 2073              		.file 11 "../../lib/e-puck2_main-processor/ChibiOS//os/rt/ports/ARMCMx/chcore.h"
 2074              		.file 12 "../../lib/e-puck2_main-processor/ChibiOS//os/rt/ports/ARMCMx/chcore_v7m.h"
 2075              		.file 13 "../../lib/e-puck2_main-processor/ChibiOS//os/rt/include/chdebug.h"
 2076              		.file 14 "../../lib/e-puck2_main-processor/ChibiOS//os/rt/include/chtm.h"
 2077              		.file 15 "../../lib/e-puck2_main-processor/ChibiOS//os/rt/include/chstats.h"
 2078              		.file 16 "../../lib/e-puck2_main-processor/ChibiOS//os/rt/include/chsem.h"
 2079              		.file 17 "../../lib/e-puck2_main-processor/ChibiOS//os/rt/include/chmtx.h"
 2080              		.file 18 "../../lib/e-puck2_main-processor/ChibiOS//os/rt/include/chregistry.h"
 2081              		.file 19 "../../lib/e-puck2_main-processor/ChibiOS//os/rt/include/chevents.h"
 2082              		.file 20 "../../lib/e-puck2_main-processor/ChibiOS//os/rt/include/chqueues.h"
 2083              		.file 21 "../../lib/e-puck2_main-processor/ChibiOS//os/hal/ports/STM32/STM32F4xx/stm32_dma.h"
 2084              		.file 22 "../../lib/e-puck2_main-processor/ChibiOS//os/hal/include/hal_ioblock.h"
 2085              		.file 23 "../../lib/e-puck2_main-processor/ChibiOS//os/hal/ports/STM32/LLD/GPIOv2/pal_lld.h"
 2086              		.file 24 "../../lib/e-puck2_main-processor/ChibiOS//os/hal/include/adc.h"
 2087              		.file 25 "../../lib/e-puck2_main-processor/ChibiOS//os/hal/ports/STM32/STM32F4xx/adc_lld.h"
 2088              		.file 26 "../../lib/e-puck2_main-processor/ChibiOS//os/hal/include/can.h"
 2089              		.file 27 "../../lib/e-puck2_main-processor/ChibiOS//os/hal/ports/STM32/LLD/can_lld.h"
 2090              		.file 28 "../../lib/e-puck2_main-processor/ChibiOS//os/hal/include/dac.h"
 2091              		.file 29 "../../lib/e-puck2_main-processor/ChibiOS//os/hal/ports/STM32/LLD/DACv1/dac_lld.h"
 2092              		.file 30 "../../lib/e-puck2_main-processor/ChibiOS//os/hal/include/ext.h"
 2093              		.file 31 "../../lib/e-puck2_main-processor/ChibiOS//os/hal/ports/STM32/LLD/ext_lld.h"
 2094              		.file 32 "../../lib/e-puck2_main-processor/ChibiOS//os/hal/include/gpt.h"
 2095              		.file 33 "../../lib/e-puck2_main-processor/ChibiOS//os/hal/ports/STM32/LLD/TIMv1/gpt_lld.h"
 2096              		.file 34 "../../lib/e-puck2_main-processor/ChibiOS//os/hal/ports/STM32/LLD/TIMv1/stm32_tim.h"
 2097              		.file 35 "../../lib/e-puck2_main-processor/ChibiOS//os/hal/include/i2c.h"
 2098              		.file 36 "../../lib/e-puck2_main-processor/ChibiOS//os/hal/ports/STM32/LLD/I2Cv1/i2c_lld.h"
 2099              		.file 37 "../../lib/e-puck2_main-processor/ChibiOS//os/hal/include/i2s.h"
 2100              		.file 38 "../../lib/e-puck2_main-processor/ChibiOS//os/hal/ports/STM32/LLD/SPIv1/i2s_lld.h"
 2101              		.file 39 "../../lib/e-puck2_main-processor/ChibiOS//os/hal/include/pwm.h"
ARM GAS  /var/folders/0b/rh7d8qts4ys3rdpl8xd_0jkm0000gn/T//ccT1yIt8.s 			page 38


 2102              		.file 40 "../../lib/e-puck2_main-processor/ChibiOS//os/hal/ports/STM32/LLD/TIMv1/pwm_lld.h"
 2103              		.file 41 "../../lib/e-puck2_main-processor/ChibiOS//os/hal/include/serial.h"
 2104              		.file 42 "../../lib/e-puck2_main-processor/ChibiOS//os/hal/ports/STM32/LLD/USARTv1/serial_lld.h"
 2105              		.file 43 "../../lib/e-puck2_main-processor/ChibiOS//os/hal/include/sdc.h"
 2106              		.file 44 "../../lib/e-puck2_main-processor/ChibiOS//os/hal/ports/STM32/LLD/sdc_lld.h"
 2107              		.file 45 "../../lib/e-puck2_main-processor/ChibiOS//os/hal/include/spi.h"
 2108              		.file 46 "../../lib/e-puck2_main-processor/ChibiOS//os/hal/ports/STM32/LLD/SPIv1/spi_lld.h"
 2109              		.file 47 "../../lib/e-puck2_main-processor/ChibiOS//os/hal/include/usb.h"
 2110              		.file 48 "../../lib/e-puck2_main-processor/ChibiOS//os/hal/ports/STM32/LLD/OTGv1/usb_lld.h"
 2111              		.file 49 "../../lib/e-puck2_main-processor/ChibiOS//os/hal/ports/STM32/LLD/OTGv1/stm32_otg.h"
 2112              		.file 50 "/Applications/Eclipse_e-puck2.app/Contents/Eclipse_e-puck2/Tools/gcc-arm-none-eabi-7-201
 2113              		.file 51 "/Applications/Eclipse_e-puck2.app/Contents/Eclipse_e-puck2/Tools/gcc-arm-none-eabi-7-201
 2114              		.file 52 "/Applications/Eclipse_e-puck2.app/Contents/Eclipse_e-puck2/Tools/gcc-arm-none-eabi-7-201
 2115              		.file 53 "/Applications/Eclipse_e-puck2.app/Contents/Eclipse_e-puck2/Tools/gcc-arm-none-eabi-7-201
 2116              		.file 54 "../../lib/e-puck2_main-processor/ChibiOS//os/rt/include/chthreads.h"