ARM GAS  /var/folders/0b/rh7d8qts4ys3rdpl8xd_0jkm0000gn/T//cc5KKQdz.s 			page 1


   1              		.cpu cortex-m4
   2              		.eabi_attribute 27, 1
   3              		.eabi_attribute 28, 1
   4              		.eabi_attribute 20, 1
   5              		.eabi_attribute 21, 1
   6              		.eabi_attribute 23, 3
   7              		.eabi_attribute 24, 1
   8              		.eabi_attribute 25, 1
   9              		.eabi_attribute 26, 1
  10              		.eabi_attribute 30, 2
  11              		.eabi_attribute 34, 1
  12              		.eabi_attribute 18, 4
  13              		.file	"process_image.c"
  14              		.text
  15              	.Ltext0:
  16              		.cfi_sections	.debug_frame
  17              		.section	.text.determine_color.part.0,"ax",%progbits
  18              		.align	1
  19              		.p2align 4,,15
  20              		.syntax unified
  21              		.thumb
  22              		.thumb_func
  23              		.fpu fpv4-sp-d16
  24              		.type	determine_color.part.0, %function
  25              	determine_color.part.0:
  26              	.LFB264:
  27              		.file 1 "process_image.c"
  28              		.loc 1 28 0
  29              		.cfi_startproc
  30              		@ args = 0, pretend = 0, frame = 8
  31              		@ frame_needed = 0, uses_anonymous_args = 0
  32              	.LVL0:
  33 0000 F0B5     		push	{r4, r5, r6, r7, lr}
  34              		.cfi_def_cfa_offset 20
  35              		.cfi_offset 4, -20
  36              		.cfi_offset 5, -16
  37              		.cfi_offset 6, -12
  38              		.cfi_offset 7, -8
  39              		.cfi_offset 14, -4
  40 0002 134E     		ldr	r6, .L9
  41 0004 83B0     		sub	sp, sp, #12
  42              		.cfi_def_cfa_offset 32
  43              		.loc 1 28 0
  44 0006 0022     		movs	r2, #0
  45 0008 3368     		ldr	r3, [r6]
  46 000a 0193     		str	r3, [sp, #4]
  47              	.LVL1:
  48 000c 0746     		mov	r7, r0
  49              		.loc 1 29 0
  50 000e 1046     		mov	r0, r2
  51              	.LVL2:
  52              	.L3:
  53              	.LBB48:
  54              		.loc 1 51 0
  55 0010 BB18     		adds	r3, r7, r2
  56 0012 BC5C     		ldrb	r4, [r7, r2]	@ zero_extendqisi2
  57 0014 5B78     		ldrb	r3, [r3, #1]	@ zero_extendqisi2
ARM GAS  /var/folders/0b/rh7d8qts4ys3rdpl8xd_0jkm0000gn/T//cc5KKQdz.s 			page 2


  58 0016 6401     		lsls	r4, r4, #5
  59 0018 DB10     		asrs	r3, r3, #3
  60 001a 03F01C03 		and	r3, r3, #28
  61 001e 04F06004 		and	r4, r4, #96
  62 0022 2343     		orrs	r3, r3, r4
  63              		.loc 1 52 0
  64 0024 3B2B     		cmp	r3, #59
  65              		.loc 1 51 0
  66 0026 C2F34E05 		ubfx	r5, r2, #1, #15
  67              		.loc 1 53 0
  68 002a D8BF     		it	le
  69 002c 0130     		addle	r0, r0, #1
  70              	.LVL3:
  71 002e 02F10202 		add	r2, r2, #2
  72              	.LVL4:
  73 0032 D8BF     		it	le
  74 0034 80B2     		uxthle	r0, r0
  75              	.LVL5:
  76              		.loc 1 50 0
  77 0036 B2F5A06F 		cmp	r2, #1280
  78              		.loc 1 51 0
  79 003a 4B55     		strb	r3, [r1, r5]
  80              		.loc 1 50 0
  81 003c E8D1     		bne	.L3
  82              	.LBE48:
  83              		.loc 1 60 0
  84 003e 019A     		ldr	r2, [sp, #4]
  85 0040 3368     		ldr	r3, [r6]
  86 0042 9A42     		cmp	r2, r3
  87 0044 01D1     		bne	.L8
  88 0046 03B0     		add	sp, sp, #12
  89              		.cfi_remember_state
  90              		.cfi_def_cfa_offset 20
  91              		@ sp needed
  92 0048 F0BD     		pop	{r4, r5, r6, r7, pc}
  93              	.LVL6:
  94              	.L8:
  95              		.cfi_restore_state
  96 004a FFF7FEFF 		bl	__stack_chk_fail
  97              	.LVL7:
  98              	.L10:
  99 004e 00BF     		.align	2
 100              	.L9:
 101 0050 00000000 		.word	__stack_chk_guard
 102              		.cfi_endproc
 103              	.LFE264:
 104              		.size	determine_color.part.0, .-determine_color.part.0
 105              		.section	.text.CaptureImage,"ax",%progbits
 106              		.align	1
 107              		.p2align 4,,15
 108              		.syntax unified
 109              		.thumb
 110              		.thumb_func
 111              		.fpu fpv4-sp-d16
 112              		.type	CaptureImage, %function
 113              	CaptureImage:
 114              	.LFB259:
ARM GAS  /var/folders/0b/rh7d8qts4ys3rdpl8xd_0jkm0000gn/T//cc5KKQdz.s 			page 3


 115              		.loc 1 171 0
 116              		.cfi_startproc
 117              		@ Volatile: function does not return.
 118              		@ args = 0, pretend = 0, frame = 8
 119              		@ frame_needed = 0, uses_anonymous_args = 0
 120              	.LVL8:
 121 0000 80B5     		push	{r7, lr}
 122              		.cfi_def_cfa_offset 8
 123              		.cfi_offset 7, -8
 124              		.cfi_offset 14, -4
 125              	.LBB65:
 126              	.LBB66:
 127              		.file 2 "../../lib/e-puck2_main-processor/ChibiOS//os/rt/include/chregistry.h"
 128              		.loc 2 135 0
 129 0002 274C     		ldr	r4, .L22
 130              	.LBE66:
 131              	.LBE65:
 132              		.loc 1 171 0
 133 0004 2749     		ldr	r1, .L22+4
 134              	.LBB69:
 135              	.LBB67:
 136              		.loc 2 135 0
 137 0006 A369     		ldr	r3, [r4, #24]
 138 0008 274A     		ldr	r2, .L22+8
 139              	.LBE67:
 140              	.LBE69:
 141              		.loc 1 171 0
 142 000a 0D68     		ldr	r5, [r1]
 143              	.LBB70:
 144              	.LBB68:
 145              		.loc 2 135 0
 146 000c 9A61     		str	r2, [r3, #24]
 147              	.LBE68:
 148              	.LBE70:
 149              		.loc 1 171 0
 150 000e 86B0     		sub	sp, sp, #24
 151              		.cfi_def_cfa_offset 32
 152              		.loc 1 176 0
 153 0010 2023     		movs	r3, #32
 154 0012 0222     		movs	r2, #2
 155 0014 0021     		movs	r1, #0
 156 0016 CDE90133 		strd	r3, r3, [sp, #4]
 157 001a 0092     		str	r2, [sp]
 158 001c 4FF42073 		mov	r3, #640
 159 0020 0A22     		movs	r2, #10
 160              		.loc 1 171 0
 161 0022 0595     		str	r5, [sp, #20]
 162              		.loc 1 176 0
 163 0024 3020     		movs	r0, #48
 164              	.LVL9:
 165 0026 214D     		ldr	r5, .L22+12
 166              	.LBB71:
 167              	.LBB72:
 168              	.LBB73:
 169              	.LBB74:
 170              		.file 3 "../../lib/e-puck2_main-processor/ChibiOS//os/rt/include/chsys.h"
 171              		.loc 3 367 0
ARM GAS  /var/folders/0b/rh7d8qts4ys3rdpl8xd_0jkm0000gn/T//cc5KKQdz.s 			page 4


 172 0028 214F     		ldr	r7, .L22+16
 173              	.LBE74:
 174              	.LBE73:
 175              	.LBE72:
 176              	.LBE71:
 177              		.loc 1 176 0
 178 002a FFF7FEFF 		bl	po8030_advanced_config
 179              	.LVL10:
 180              		.loc 1 177 0
 181 002e FFF7FEFF 		bl	dcmi_enable_double_buffering
 182              	.LVL11:
 183              		.loc 1 178 0
 184 0032 0020     		movs	r0, #0
 185 0034 FFF7FEFF 		bl	dcmi_set_capture_mode
 186              	.LVL12:
 187              	.LBB94:
 188              	.LBB91:
 189              	.LBB79:
 190              	.LBB80:
 191              		.file 4 "../../lib/e-puck2_main-processor/ChibiOS//os/rt/include/chbsem.h"
 192              		.loc 4 271 0
 193 0038 A846     		mov	r8, r5
 194              	.LBE80:
 195              	.LBE79:
 196              	.LBE91:
 197              	.LBE94:
 198              		.loc 1 179 0
 199 003a FFF7FEFF 		bl	dcmi_prepare
 200              	.LVL13:
 201              		.loc 1 183 0
 202 003e 0026     		movs	r6, #0
 203 0040 22E0     		b	.L15
 204              	.L12:
 205              		.loc 1 185 0
 206 0042 FFF7FEFF 		bl	dcmi_capture_start
 207              	.LVL14:
 208              		.loc 1 187 0
 209 0046 FFF7FEFF 		bl	wait_image_ready
 210              	.LVL15:
 211              	.LBB95:
 212              	.LBB92:
 213              	.LBB83:
 214              	.LBB84:
 215              	.LBB85:
 216              	.LBB86:
 217              	.LBB87:
 218              		.file 5 "../../lib/e-puck2_main-processor/ChibiOS//os/ext/CMSIS/include/core_cmFunc.h"
 219              		.loc 5 546 0
 220 004a 2023     		movs	r3, #32
 221              		.syntax unified
 222              	@ 546 "../../lib/e-puck2_main-processor/ChibiOS//os/ext/CMSIS/include/core_cmFunc.h" 1
 223 004c 83F31188 		MSR basepri, r3
 224              	@ 0 "" 2
 225              	.LVL16:
 226              		.thumb
 227              		.syntax unified
 228              	.LBE87:
ARM GAS  /var/folders/0b/rh7d8qts4ys3rdpl8xd_0jkm0000gn/T//cc5KKQdz.s 			page 5


 229              	.LBE86:
 230              	.LBE85:
 231              		.loc 3 349 0
 232 0050 FFF7FEFF 		bl	_stats_start_measure_crit_thd
 233              	.LVL17:
 234              		.loc 3 350 0
 235 0054 FFF7FEFF 		bl	_dbg_check_lock
 236              	.LVL18:
 237              	.LBE84:
 238              	.LBE83:
 239              	.LBB88:
 240              	.LBB81:
 241              		.loc 4 268 0
 242 0058 FFF7FEFF 		bl	chDbgCheckClassI
 243              	.LVL19:
 244              		.loc 4 270 0
 245 005c AB68     		ldr	r3, [r5, #8]
 246 005e 002B     		cmp	r3, #0
 247 0060 1ADD     		ble	.L21
 248              	.L13:
 249              	.LVL20:
 250              	.LBE81:
 251              	.LBE88:
 252              		.loc 4 286 0
 253 0062 FFF7FEFF 		bl	chSchRescheduleS
 254              	.LVL21:
 255              	.LBB89:
 256              	.LBB78:
 257              		.loc 3 360 0
 258 0066 FFF7FEFF 		bl	_dbg_check_unlock
 259              	.LVL22:
 260              		.loc 3 361 0
 261 006a FFF7FEFF 		bl	_stats_stop_measure_crit_thd
 262              	.LVL23:
 263              		.loc 3 367 0
 264 006e 2368     		ldr	r3, [r4]
 265 0070 A342     		cmp	r3, r4
 266 0072 07D0     		beq	.L14
 267 0074 A269     		ldr	r2, [r4, #24]
 268 0076 9B68     		ldr	r3, [r3, #8]
 269 0078 9268     		ldr	r2, [r2, #8]
 270 007a 9A42     		cmp	r2, r3
 271 007c 02D2     		bcs	.L14
 272 007e 3846     		mov	r0, r7
 273 0080 FFF7FEFF 		bl	chSysHalt
 274              	.LVL24:
 275              	.L14:
 276              	.LBB75:
 277              	.LBB76:
 278              	.LBB77:
 279              		.loc 5 546 0
 280              		.syntax unified
 281              	@ 546 "../../lib/e-puck2_main-processor/ChibiOS//os/ext/CMSIS/include/core_cmFunc.h" 1
 282 0084 86F31188 		MSR basepri, r6
 283              	@ 0 "" 2
 284              	.LVL25:
 285              		.thumb
ARM GAS  /var/folders/0b/rh7d8qts4ys3rdpl8xd_0jkm0000gn/T//cc5KKQdz.s 			page 6


 286              		.syntax unified
 287              	.L15:
 288              	.LBE77:
 289              	.LBE76:
 290              	.LBE75:
 291              	.LBE78:
 292              	.LBE89:
 293              	.LBE92:
 294              	.LBE95:
 295              		.loc 1 182 0
 296 0088 FFF7FEFF 		bl	retrieve_end_camera_thread
 297              	.LVL26:
 298 008c 0028     		cmp	r0, #0
 299 008e D8D0     		beq	.L12
 300              		.loc 1 183 0
 301 0090 0020     		movs	r0, #0
 302 0092 FFF7FEFF 		bl	chThdExit
 303              	.LVL27:
 304 0096 D4E7     		b	.L12
 305              	.LVL28:
 306              	.L21:
 307              	.LBB96:
 308              	.LBB93:
 309              	.LBB90:
 310              	.LBB82:
 311              		.loc 4 271 0
 312 0098 4046     		mov	r0, r8
 313 009a FFF7FEFF 		bl	chSemSignalI
 314              	.LVL29:
 315 009e E0E7     		b	.L13
 316              	.L23:
 317              		.align	2
 318              	.L22:
 319 00a0 00000000 		.word	ch
 320 00a4 00000000 		.word	__stack_chk_guard
 321 00a8 00000000 		.word	.LANCHOR0
 322 00ac 00000000 		.word	.LANCHOR1
 323 00b0 00000000 		.word	.LANCHOR2
 324              	.LBE82:
 325              	.LBE90:
 326              	.LBE93:
 327              	.LBE96:
 328              		.cfi_endproc
 329              	.LFE259:
 330              		.size	CaptureImage, .-CaptureImage
 331              		.section	.text.determine_color,"ax",%progbits
 332              		.align	1
 333              		.p2align 4,,15
 334              		.global	determine_color
 335              		.syntax unified
 336              		.thumb
 337              		.thumb_func
 338              		.fpu fpv4-sp-d16
 339              		.type	determine_color, %function
 340              	determine_color:
 341              	.LFB256:
 342              		.loc 1 28 0
ARM GAS  /var/folders/0b/rh7d8qts4ys3rdpl8xd_0jkm0000gn/T//cc5KKQdz.s 			page 7


 343              		.cfi_startproc
 344              		@ args = 0, pretend = 0, frame = 8
 345              		@ frame_needed = 0, uses_anonymous_args = 0
 346              	.LVL30:
 347 0000 F0B5     		push	{r4, r5, r6, r7, lr}
 348              		.cfi_def_cfa_offset 20
 349              		.cfi_offset 4, -20
 350              		.cfi_offset 5, -16
 351              		.cfi_offset 6, -12
 352              		.cfi_offset 7, -8
 353              		.cfi_offset 14, -4
 354 0002 234D     		ldr	r5, .L42
 355 0004 83B0     		sub	sp, sp, #12
 356              		.cfi_def_cfa_offset 32
 357              		.loc 1 28 0
 358 0006 2B68     		ldr	r3, [r5]
 359 0008 0193     		str	r3, [sp, #4]
 360              	.LVL31:
 361              		.loc 1 30 0
 362 000a 012A     		cmp	r2, #1
 363              		.loc 1 28 0
 364 000c 0446     		mov	r4, r0
 365 000e 0E46     		mov	r6, r1
 366              		.loc 1 30 0
 367 0010 25D0     		beq	.L26
 368 0012 11D3     		bcc	.L35
 369 0014 022A     		cmp	r2, #2
 370 0016 06D0     		beq	.L41
 371              		.loc 1 29 0
 372 0018 0020     		movs	r0, #0
 373              	.LVL32:
 374              	.L25:
 375              		.loc 1 60 0
 376 001a 019A     		ldr	r2, [sp, #4]
 377 001c 2B68     		ldr	r3, [r5]
 378 001e 9A42     		cmp	r2, r3
 379 0020 33D1     		bne	.L40
 380 0022 03B0     		add	sp, sp, #12
 381              		.cfi_remember_state
 382              		.cfi_def_cfa_offset 20
 383              		@ sp needed
 384 0024 F0BD     		pop	{r4, r5, r6, r7, pc}
 385              	.LVL33:
 386              	.L41:
 387              		.cfi_restore_state
 388 0026 019A     		ldr	r2, [sp, #4]
 389              	.LVL34:
 390 0028 2B68     		ldr	r3, [r5]
 391 002a 9A42     		cmp	r2, r3
 392 002c 2DD1     		bne	.L40
 393 002e 03B0     		add	sp, sp, #12
 394              		.cfi_remember_state
 395              		.cfi_def_cfa_offset 20
 396              		@ sp needed
 397 0030 BDE8F040 		pop	{r4, r5, r6, r7, lr}
 398              		.cfi_restore 14
 399              		.cfi_restore 7
ARM GAS  /var/folders/0b/rh7d8qts4ys3rdpl8xd_0jkm0000gn/T//cc5KKQdz.s 			page 8


 400              		.cfi_restore 6
 401              		.cfi_restore 5
 402              		.cfi_restore 4
 403              		.cfi_def_cfa_offset 0
 404 0034 FFF7FEBF 		b	determine_color.part.0
 405              	.LVL35:
 406              	.L35:
 407              		.cfi_restore_state
 408              		.loc 1 30 0
 409 0038 0023     		movs	r3, #0
 410              		.loc 1 29 0
 411 003a 1846     		mov	r0, r3
 412              	.LVL36:
 413              	.L27:
 414              	.LBB97:
 415              		.loc 1 35 0
 416 003c E25C     		ldrb	r2, [r4, r3]	@ zero_extendqisi2
 417 003e 02F0F802 		and	r2, r2, #248
 418              		.loc 1 36 0
 419 0042 3B2A     		cmp	r2, #59
 420              		.loc 1 35 0
 421 0044 C3F34E01 		ubfx	r1, r3, #1, #15
 422              		.loc 1 37 0
 423 0048 98BF     		it	ls
 424 004a 0130     		addls	r0, r0, #1
 425              	.LVL37:
 426 004c 03F10203 		add	r3, r3, #2
 427              	.LVL38:
 428 0050 98BF     		it	ls
 429 0052 80B2     		uxthls	r0, r0
 430              	.LVL39:
 431              		.loc 1 34 0
 432 0054 B3F5A06F 		cmp	r3, #1280
 433              		.loc 1 35 0
 434 0058 7254     		strb	r2, [r6, r1]
 435              		.loc 1 34 0
 436 005a EFD1     		bne	.L27
 437 005c DDE7     		b	.L25
 438              	.LVL40:
 439              	.L26:
 440 005e 00F5A067 		add	r7, r0, #1280
 441              	.LBE97:
 442              		.loc 1 30 0
 443 0062 0146     		mov	r1, r0
 444              	.LVL41:
 445              		.loc 1 29 0
 446 0064 0020     		movs	r0, #0
 447              	.LVL42:
 448              	.L32:
 449              	.LBB98:
 450              		.loc 1 43 0
 451 0066 4B78     		ldrb	r3, [r1, #1]	@ zero_extendqisi2
 452 0068 DB00     		lsls	r3, r3, #3
 453 006a DBB2     		uxtb	r3, r3
 454              		.loc 1 44 0
 455 006c 3B2B     		cmp	r3, #59
 456              		.loc 1 43 0
ARM GAS  /var/folders/0b/rh7d8qts4ys3rdpl8xd_0jkm0000gn/T//cc5KKQdz.s 			page 9


 457 006e A1EB0402 		sub	r2, r1, r4
 458              		.loc 1 45 0
 459 0072 98BF     		it	ls
 460 0074 0130     		addls	r0, r0, #1
 461              	.LVL43:
 462              		.loc 1 43 0
 463 0076 C2F34E02 		ubfx	r2, r2, #1, #15
 464 007a 01F10201 		add	r1, r1, #2
 465              	.LVL44:
 466              		.loc 1 45 0
 467 007e 98BF     		it	ls
 468 0080 80B2     		uxthls	r0, r0
 469              	.LVL45:
 470              		.loc 1 42 0
 471 0082 8F42     		cmp	r7, r1
 472              		.loc 1 43 0
 473 0084 B354     		strb	r3, [r6, r2]
 474              		.loc 1 42 0
 475 0086 EED1     		bne	.L32
 476 0088 C7E7     		b	.L25
 477              	.LVL46:
 478              	.L40:
 479              	.LBE98:
 480              		.loc 1 60 0
 481 008a FFF7FEFF 		bl	__stack_chk_fail
 482              	.LVL47:
 483              	.L43:
 484 008e 00BF     		.align	2
 485              	.L42:
 486 0090 00000000 		.word	__stack_chk_guard
 487              		.cfi_endproc
 488              	.LFE256:
 489              		.size	determine_color, .-determine_color
 490              		.section	.text.extract_line_width,"ax",%progbits
 491              		.align	1
 492              		.p2align 4,,15
 493              		.global	extract_line_width
 494              		.syntax unified
 495              		.thumb
 496              		.thumb_func
 497              		.fpu fpv4-sp-d16
 498              		.type	extract_line_width, %function
 499              	extract_line_width:
 500              	.LFB257:
 501              		.loc 1 67 0
 502              		.cfi_startproc
 503              		@ args = 0, pretend = 0, frame = 8
 504              		@ frame_needed = 0, uses_anonymous_args = 0
 505              	.LVL48:
 506 0000 F0B5     		push	{r4, r5, r6, r7, lr}
 507              		.cfi_def_cfa_offset 20
 508              		.cfi_offset 4, -20
 509              		.cfi_offset 5, -16
 510              		.cfi_offset 6, -12
 511              		.cfi_offset 7, -8
 512              		.cfi_offset 14, -4
 513 0002 2B4C     		ldr	r4, .L70
ARM GAS  /var/folders/0b/rh7d8qts4ys3rdpl8xd_0jkm0000gn/T//cc5KKQdz.s 			page 10


 514 0004 83B0     		sub	sp, sp, #12
 515              		.cfi_def_cfa_offset 32
 516              		.loc 1 67 0
 517 0006 2368     		ldr	r3, [r4]
 518 0008 0193     		str	r3, [sp, #4]
 519              	.LVL49:
 520 000a 00F27F25 		addw	r5, r0, #639
 521 000e 431E     		subs	r3, r0, #1
 522              		.loc 1 71 0
 523 0010 0022     		movs	r2, #0
 524              	.LVL50:
 525              	.L45:
 526              	.LBB99:
 527              		.loc 1 75 0 discriminator 3
 528 0012 13F8011F 		ldrb	r1, [r3, #1]!	@ zero_extendqisi2
 529              		.loc 1 74 0 discriminator 3
 530 0016 AB42     		cmp	r3, r5
 531              		.loc 1 75 0 discriminator 3
 532 0018 0A44     		add	r2, r2, r1
 533              	.LVL51:
 534              		.loc 1 74 0 discriminator 3
 535 001a FAD1     		bne	.L45
 536              	.LBE99:
 537              		.loc 1 77 0
 538 001c 254B     		ldr	r3, .L70+4
 539 001e 0578     		ldrb	r5, [r0]	@ zero_extendqisi2
 540 0020 A3FB0232 		umull	r3, r2, r3, r2
 541              	.LVL52:
 542 0024 520A     		lsrs	r2, r2, #9
 543              	.LVL53:
 544              		.loc 1 69 0
 545 0026 0021     		movs	r1, #0
 546              		.loc 1 82 0
 547 0028 40F27A26 		movw	r6, #634
 548              	.LVL54:
 549              	.L46:
 550 002c 4B1C     		adds	r3, r1, #1
 551              		.loc 1 86 0
 552 002e 9542     		cmp	r5, r2
 553 0030 9BB2     		uxth	r3, r3
 554 0032 20D9     		bls	.L48
 555              	.L68:
 556              		.loc 1 86 0 is_stmt 0 discriminator 1
 557 0034 4518     		adds	r5, r0, r1
 558 0036 6D79     		ldrb	r5, [r5, #5]	@ zero_extendqisi2
 559 0038 9542     		cmp	r5, r2
 560 003a 1CD2     		bcs	.L48
 561              	.LVL55:
 562              		.loc 1 94 0 is_stmt 1
 563 003c B342     		cmp	r3, r6
 564 003e 26D8     		bhi	.L59
 565              		.loc 1 94 0 is_stmt 0 discriminator 1
 566 0040 31B3     		cbz	r1, .L47
 567 0042 03F1FF3C 		add	ip, r3, #-1
 568 0046 8444     		add	ip, ip, r0
 569              	.LVL56:
 570              	.L56:
ARM GAS  /var/folders/0b/rh7d8qts4ys3rdpl8xd_0jkm0000gn/T//cc5KKQdz.s 			page 11


 571              		.loc 1 100 0 is_stmt 1
 572 0048 1CF8015F 		ldrb	r5, [ip, #1]!	@ zero_extendqisi2
 573 004c 9542     		cmp	r5, r2
 574 004e 9FB2     		uxth	r7, r3
 575 0050 16D9     		bls	.L51
 576              		.loc 1 100 0 is_stmt 0 discriminator 1
 577 0052 1CF805EC 		ldrb	lr, [ip, #-5]	@ zero_extendqisi2
 578 0056 9645     		cmp	lr, r2
 579 0058 12D2     		bcs	.L51
 580              	.LVL57:
 581              		.loc 1 119 0 is_stmt 1
 582 005a A7EB010C 		sub	ip, r7, r1
 583 005e BCF1270F 		cmp	ip, #39
 584 0062 3B46     		mov	r3, r7
 585 0064 8E46     		mov	lr, r1
 586 0066 1ADC     		bgt	.L67
 587              	.LVL58:
 588              		.loc 1 82 0
 589 0068 B742     		cmp	r7, r6
 590 006a 10D8     		bhi	.L59
 591 006c 3946     		mov	r1, r7
 592 006e 4B1C     		adds	r3, r1, #1
 593              		.loc 1 86 0
 594 0070 9542     		cmp	r5, r2
 595 0072 9BB2     		uxth	r3, r3
 596 0074 DED8     		bhi	.L68
 597              	.LVL59:
 598              	.L48:
 599              		.loc 1 82 0 discriminator 1
 600 0076 B342     		cmp	r3, r6
 601 0078 09D8     		bhi	.L59
 602 007a C55C     		ldrb	r5, [r0, r3]	@ zero_extendqisi2
 603              	.LVL60:
 604              		.loc 1 82 0 is_stmt 0
 605 007c 1946     		mov	r1, r3
 606 007e D5E7     		b	.L46
 607              	.LVL61:
 608              	.L51:
 609 0080 0137     		adds	r7, r7, #1
 610 0082 BFB2     		uxth	r7, r7
 611              	.LVL62:
 612              		.loc 1 98 0 is_stmt 1
 613 0084 B7F5207F 		cmp	r7, #640
 614 0088 03F10103 		add	r3, r3, #1
 615 008c DCD1     		bne	.L56
 616              	.LVL63:
 617              	.L59:
 618              		.loc 1 131 0
 619 008e 0021     		movs	r1, #0
 620              	.LVL64:
 621              	.L47:
 622              		.loc 1 137 0
 623 0090 019A     		ldr	r2, [sp, #4]
 624 0092 2368     		ldr	r3, [r4]
 625 0094 9A42     		cmp	r2, r3
 626 0096 0846     		mov	r0, r1
 627              	.LVL65:
ARM GAS  /var/folders/0b/rh7d8qts4ys3rdpl8xd_0jkm0000gn/T//cc5KKQdz.s 			page 12


 628 0098 08D1     		bne	.L69
 629 009a 03B0     		add	sp, sp, #12
 630              		.cfi_remember_state
 631              		.cfi_def_cfa_offset 20
 632              		@ sp needed
 633 009c F0BD     		pop	{r4, r5, r6, r7, pc}
 634              	.LVL66:
 635              	.L67:
 636              		.cfi_restore_state
 637              		.loc 1 134 0
 638 009e 0B44     		add	r3, r3, r1
 639 00a0 054A     		ldr	r2, .L70+8
 640              	.LVL67:
 641 00a2 5B10     		asrs	r3, r3, #1
 642              		.loc 1 133 0
 643 00a4 791A     		subs	r1, r7, r1
 644              	.LVL68:
 645 00a6 89B2     		uxth	r1, r1
 646              	.LVL69:
 647              		.loc 1 134 0
 648 00a8 1380     		strh	r3, [r2]	@ movhi
 649 00aa F1E7     		b	.L47
 650              	.LVL70:
 651              	.L69:
 652              		.loc 1 137 0
 653 00ac FFF7FEFF 		bl	__stack_chk_fail
 654              	.LVL71:
 655              	.L71:
 656              		.align	2
 657              	.L70:
 658 00b0 00000000 		.word	__stack_chk_guard
 659 00b4 CDCCCCCC 		.word	-858993459
 660 00b8 00000000 		.word	.LANCHOR3
 661              		.cfi_endproc
 662              	.LFE257:
 663              		.size	extract_line_width, .-extract_line_width
 664              		.section	.text.determine_goals,"ax",%progbits
 665              		.align	1
 666              		.p2align 4,,15
 667              		.global	determine_goals
 668              		.syntax unified
 669              		.thumb
 670              		.thumb_func
 671              		.fpu fpv4-sp-d16
 672              		.type	determine_goals, %function
 673              	determine_goals:
 674              	.LFB258:
 675              		.loc 1 143 0
 676              		.cfi_startproc
 677              		@ args = 0, pretend = 0, frame = 8
 678              		@ frame_needed = 0, uses_anonymous_args = 0
 679              	.LVL72:
 680 0000 2DE9F041 		push	{r4, r5, r6, r7, r8, lr}
 681              		.cfi_def_cfa_offset 24
 682              		.cfi_offset 4, -24
 683              		.cfi_offset 5, -20
 684              		.cfi_offset 6, -16
ARM GAS  /var/folders/0b/rh7d8qts4ys3rdpl8xd_0jkm0000gn/T//cc5KKQdz.s 			page 13


 685              		.cfi_offset 7, -12
 686              		.cfi_offset 8, -8
 687              		.cfi_offset 14, -4
 688 0004 2B4E     		ldr	r6, .L90
 689 0006 82B0     		sub	sp, sp, #8
 690              		.cfi_def_cfa_offset 32
 691              		.loc 1 143 0
 692 0008 0023     		movs	r3, #0
 693 000a 3268     		ldr	r2, [r6]
 694 000c 0192     		str	r2, [sp, #4]
 695              	.LVL73:
 696 000e 0546     		mov	r5, r0
 697              	.LVL74:
 698 0010 0F46     		mov	r7, r1
 699              	.LVL75:
 700              	.LBB100:
 701              	.LBB101:
 702              		.loc 1 29 0
 703 0012 1C46     		mov	r4, r3
 704              	.LVL76:
 705              	.L74:
 706              	.LBB102:
 707              		.loc 1 35 0
 708 0014 EA5C     		ldrb	r2, [r5, r3]	@ zero_extendqisi2
 709 0016 02F0F802 		and	r2, r2, #248
 710              		.loc 1 36 0
 711 001a 3B2A     		cmp	r2, #59
 712              		.loc 1 35 0
 713 001c C3F34E01 		ubfx	r1, r3, #1, #15
 714              		.loc 1 37 0
 715 0020 98BF     		it	ls
 716 0022 0134     		addls	r4, r4, #1
 717              	.LVL77:
 718 0024 03F10203 		add	r3, r3, #2
 719              	.LVL78:
 720 0028 98BF     		it	ls
 721 002a A4B2     		uxthls	r4, r4
 722              	.LVL79:
 723              		.loc 1 34 0
 724 002c B3F5A06F 		cmp	r3, #1280
 725              		.loc 1 35 0
 726 0030 7A54     		strb	r2, [r7, r1]
 727              		.loc 1 34 0
 728 0032 EFD1     		bne	.L74
 729              	.LVL80:
 730              	.LBE102:
 731              	.LBE101:
 732              	.LBE100:
 733              	.LBB103:
 734              	.LBB104:
 735 0034 3946     		mov	r1, r7
 736 0036 2846     		mov	r0, r5
 737              	.LVL81:
 738 0038 FFF7FEFF 		bl	determine_color.part.0
 739              	.LVL82:
 740              	.LBE104:
 741              	.LBE103:
ARM GAS  /var/folders/0b/rh7d8qts4ys3rdpl8xd_0jkm0000gn/T//cc5KKQdz.s 			page 14


 742              		.loc 1 147 0
 743 003c 3946     		mov	r1, r7
 744              	.LBB106:
 745              	.LBB105:
 746 003e 8046     		mov	r8, r0
 747              	.LVL83:
 748              	.LBE105:
 749              	.LBE106:
 750 0040 0122     		movs	r2, #1
 751 0042 2846     		mov	r0, r5
 752 0044 FFF7FEFF 		bl	determine_color
 753              	.LVL84:
 754              		.loc 1 148 0
 755 0048 A042     		cmp	r0, r4
 756 004a 0BD9     		bls	.L75
 757              		.loc 1 148 0 is_stmt 0 discriminator 1
 758 004c A045     		cmp	r8, r4
 759 004e 09D9     		bls	.L75
 760              		.loc 1 149 0 is_stmt 1
 761 0050 001B     		subs	r0, r0, r4
 762              	.LVL85:
 763 0052 9628     		cmp	r0, #150
 764 0054 23DD     		ble	.L85
 765              		.loc 1 149 0 is_stmt 0 discriminator 1
 766 0056 A8EB0404 		sub	r4, r8, r4
 767              		.loc 1 150 0 is_stmt 1 discriminator 1
 768 005a 972C     		cmp	r4, #151
 769 005c B4BF     		ite	lt
 770 005e 0320     		movlt	r0, #3
 771 0060 0020     		movge	r0, #0
 772 0062 1DE0     		b	.L76
 773              	.LVL86:
 774              	.L75:
 775              		.loc 1 153 0
 776 0064 A042     		cmp	r0, r4
 777 0066 0BD2     		bcs	.L77
 778              		.loc 1 153 0 is_stmt 0 discriminator 1
 779 0068 4045     		cmp	r0, r8
 780 006a 09D2     		bcs	.L77
 781              		.loc 1 154 0 is_stmt 1
 782 006c 241A     		subs	r4, r4, r0
 783 006e 962C     		cmp	r4, #150
 784 0070 15DD     		ble	.L85
 785              		.loc 1 154 0 is_stmt 0 discriminator 1
 786 0072 A8EB0000 		sub	r0, r8, r0
 787              	.LVL87:
 788              		.loc 1 155 0 is_stmt 1 discriminator 1
 789 0076 9728     		cmp	r0, #151
 790 0078 B4BF     		ite	lt
 791 007a 0320     		movlt	r0, #3
 792 007c 0120     		movge	r0, #1
 793 007e 0FE0     		b	.L76
 794              	.LVL88:
 795              	.L77:
 796              		.loc 1 158 0
 797 0080 4045     		cmp	r0, r8
 798 0082 0CD9     		bls	.L85
ARM GAS  /var/folders/0b/rh7d8qts4ys3rdpl8xd_0jkm0000gn/T//cc5KKQdz.s 			page 15


 799              		.loc 1 158 0 is_stmt 0 discriminator 1
 800 0084 A045     		cmp	r8, r4
 801 0086 0AD2     		bcs	.L85
 802              		.loc 1 159 0 is_stmt 1
 803 0088 A0EB0800 		sub	r0, r0, r8
 804              	.LVL89:
 805 008c 9628     		cmp	r0, #150
 806 008e 06DD     		ble	.L85
 807              		.loc 1 159 0 is_stmt 0 discriminator 1
 808 0090 A4EB0804 		sub	r4, r4, r8
 809              		.loc 1 160 0 is_stmt 1 discriminator 1
 810 0094 972C     		cmp	r4, #151
 811 0096 B4BF     		ite	lt
 812 0098 0320     		movlt	r0, #3
 813 009a 0220     		movge	r0, #2
 814 009c 00E0     		b	.L76
 815              	.L85:
 816              		.loc 1 163 0
 817 009e 0320     		movs	r0, #3
 818              	.L76:
 819              		.loc 1 164 0
 820 00a0 019A     		ldr	r2, [sp, #4]
 821 00a2 3368     		ldr	r3, [r6]
 822 00a4 9A42     		cmp	r2, r3
 823 00a6 02D1     		bne	.L89
 824 00a8 02B0     		add	sp, sp, #8
 825              		.cfi_remember_state
 826              		.cfi_def_cfa_offset 24
 827              		@ sp needed
 828 00aa BDE8F081 		pop	{r4, r5, r6, r7, r8, pc}
 829              	.LVL90:
 830              	.L89:
 831              		.cfi_restore_state
 832 00ae FFF7FEFF 		bl	__stack_chk_fail
 833              	.LVL91:
 834              	.L91:
 835 00b2 00BF     		.align	2
 836              	.L90:
 837 00b4 00000000 		.word	__stack_chk_guard
 838              		.cfi_endproc
 839              	.LFE258:
 840              		.size	determine_goals, .-determine_goals
 841              		.section	.text.get_line_width,"ax",%progbits
 842              		.align	1
 843              		.p2align 4,,15
 844              		.global	get_line_width
 845              		.syntax unified
 846              		.thumb
 847              		.thumb_func
 848              		.fpu fpv4-sp-d16
 849              		.type	get_line_width, %function
 850              	get_line_width:
 851              	.LFB260:
 852              		.loc 1 197 0
 853              		.cfi_startproc
 854              		@ args = 0, pretend = 0, frame = 8
 855              		@ frame_needed = 0, uses_anonymous_args = 0
ARM GAS  /var/folders/0b/rh7d8qts4ys3rdpl8xd_0jkm0000gn/T//cc5KKQdz.s 			page 16


 856              	.LVL92:
 857 0000 70B5     		push	{r4, r5, r6, lr}
 858              		.cfi_def_cfa_offset 16
 859              		.cfi_offset 4, -16
 860              		.cfi_offset 5, -12
 861              		.cfi_offset 6, -8
 862              		.cfi_offset 14, -4
 863 0002 244C     		ldr	r4, .L108
 864 0004 82B0     		sub	sp, sp, #8
 865              		.cfi_def_cfa_offset 24
 866              		.loc 1 197 0
 867 0006 2368     		ldr	r3, [r4]
 868 0008 0193     		str	r3, [sp, #4]
 869              	.LVL93:
 870 000a 0546     		mov	r5, r0
 871              	.LBB107:
 872              	.LBB108:
 873              		.loc 4 143 0
 874 000c 2248     		ldr	r0, .L108+4
 875              	.LVL94:
 876 000e FFF7FEFF 		bl	chSemWait
 877              	.LVL95:
 878              	.LBE108:
 879              	.LBE107:
 880              		.loc 1 201 0
 881 0012 FFF7FEFF 		bl	dcmi_get_last_image_ptr
 882              	.LVL96:
 883              		.loc 1 202 0
 884 0016 012D     		cmp	r5, #1
 885 0018 2CD0     		beq	.L94
 886 001a 1ED3     		bcc	.L101
 887 001c 022D     		cmp	r5, #2
 888 001e 12D1     		bne	.L93
 889 0020 1E4D     		ldr	r5, .L108+8
 890 0022 0022     		movs	r2, #0
 891              	.L96:
 892              	.LVL97:
 893              	.LBB109:
 894              		.loc 1 217 0 discriminator 3
 895 0024 8318     		adds	r3, r0, r2
 896 0026 815C     		ldrb	r1, [r0, r2]	@ zero_extendqisi2
 897 0028 5B78     		ldrb	r3, [r3, #1]	@ zero_extendqisi2
 898 002a 4901     		lsls	r1, r1, #5
 899 002c DB10     		asrs	r3, r3, #3
 900 002e C2F34E06 		ubfx	r6, r2, #1, #15
 901 0032 03F01C03 		and	r3, r3, #28
 902 0036 01F06001 		and	r1, r1, #96
 903 003a 0232     		adds	r2, r2, #2
 904              	.LVL98:
 905 003c 0B43     		orrs	r3, r3, r1
 906              		.loc 1 216 0 discriminator 3
 907 003e B2F5A06F 		cmp	r2, #1280
 908              		.loc 1 217 0 discriminator 3
 909 0042 AB55     		strb	r3, [r5, r6]
 910              		.loc 1 216 0 discriminator 3
 911 0044 EED1     		bne	.L96
 912              	.L93:
ARM GAS  /var/folders/0b/rh7d8qts4ys3rdpl8xd_0jkm0000gn/T//cc5KKQdz.s 			page 17


 913              	.LBE109:
 914              		.loc 1 220 0
 915 0046 019A     		ldr	r2, [sp, #4]
 916 0048 2368     		ldr	r3, [r4]
 917 004a 9A42     		cmp	r2, r3
 918 004c 20D1     		bne	.L107
 919 004e 1348     		ldr	r0, .L108+8
 920              		.loc 1 221 0
 921 0050 02B0     		add	sp, sp, #8
 922              		.cfi_remember_state
 923              		.cfi_def_cfa_offset 16
 924              		@ sp needed
 925 0052 BDE87040 		pop	{r4, r5, r6, lr}
 926              		.cfi_restore 14
 927              		.cfi_restore 6
 928              		.cfi_restore 5
 929              		.cfi_restore 4
 930              		.cfi_def_cfa_offset 0
 931              		.loc 1 220 0
 932 0056 FFF7FEBF 		b	extract_line_width
 933              	.LVL99:
 934              	.L101:
 935              		.cfi_restore_state
 936 005a 104D     		ldr	r5, .L108+8
 937              		.loc 1 202 0
 938 005c 0023     		movs	r3, #0
 939              	.L95:
 940              	.LVL100:
 941              	.LBB110:
 942              		.loc 1 207 0 discriminator 3
 943 005e C25C     		ldrb	r2, [r0, r3]	@ zero_extendqisi2
 944 0060 C3F34E01 		ubfx	r1, r3, #1, #15
 945 0064 0233     		adds	r3, r3, #2
 946              	.LVL101:
 947 0066 22F00702 		bic	r2, r2, #7
 948              		.loc 1 206 0 discriminator 3
 949 006a B3F5A06F 		cmp	r3, #1280
 950              		.loc 1 207 0 discriminator 3
 951 006e 6A54     		strb	r2, [r5, r1]
 952              		.loc 1 206 0 discriminator 3
 953 0070 F5D1     		bne	.L95
 954 0072 E8E7     		b	.L93
 955              	.L94:
 956 0074 094D     		ldr	r5, .L108+8
 957 0076 00F5A066 		add	r6, r0, #1280
 958              	.LBE110:
 959              		.loc 1 202 0
 960 007a 0346     		mov	r3, r0
 961              	.L97:
 962              	.LVL102:
 963              	.LBB111:
 964              		.loc 1 212 0 discriminator 3
 965 007c 5978     		ldrb	r1, [r3, #1]	@ zero_extendqisi2
 966 007e 1A1A     		subs	r2, r3, r0
 967 0080 C2F34E02 		ubfx	r2, r2, #1, #15
 968 0084 0233     		adds	r3, r3, #2
 969              	.LVL103:
ARM GAS  /var/folders/0b/rh7d8qts4ys3rdpl8xd_0jkm0000gn/T//cc5KKQdz.s 			page 18


 970 0086 C900     		lsls	r1, r1, #3
 971              		.loc 1 211 0 discriminator 3
 972 0088 9E42     		cmp	r6, r3
 973              		.loc 1 212 0 discriminator 3
 974 008a A954     		strb	r1, [r5, r2]
 975              		.loc 1 211 0 discriminator 3
 976 008c F6D1     		bne	.L97
 977 008e DAE7     		b	.L93
 978              	.L107:
 979              	.LBE111:
 980              		.loc 1 220 0
 981 0090 FFF7FEFF 		bl	__stack_chk_fail
 982              	.LVL104:
 983              	.L109:
 984              		.align	2
 985              	.L108:
 986 0094 00000000 		.word	__stack_chk_guard
 987 0098 00000000 		.word	.LANCHOR1
 988 009c 00000000 		.word	.LANCHOR4
 989              		.cfi_endproc
 990              	.LFE260:
 991              		.size	get_line_width, .-get_line_width
 992              		.section	.text.get_line_position,"ax",%progbits
 993              		.align	1
 994              		.p2align 4,,15
 995              		.global	get_line_position
 996              		.syntax unified
 997              		.thumb
 998              		.thumb_func
 999              		.fpu fpv4-sp-d16
 1000              		.type	get_line_position, %function
 1001              	get_line_position:
 1002              	.LFB261:
 1003              		.loc 1 227 0
 1004              		.cfi_startproc
 1005              		@ args = 0, pretend = 0, frame = 8
 1006              		@ frame_needed = 0, uses_anonymous_args = 0
 1007 0000 00B5     		push	{lr}
 1008              		.cfi_def_cfa_offset 4
 1009              		.cfi_offset 14, -4
 1010 0002 074B     		ldr	r3, .L114
 1011              		.loc 1 228 0
 1012 0004 0749     		ldr	r1, .L114+4
 1013              		.loc 1 227 0
 1014 0006 1A68     		ldr	r2, [r3]
 1015              		.loc 1 229 0
 1016 0008 0888     		ldrh	r0, [r1]
 1017              		.loc 1 227 0
 1018 000a 83B0     		sub	sp, sp, #12
 1019              		.cfi_def_cfa_offset 16
 1020              		.loc 1 227 0
 1021 000c 0192     		str	r2, [sp, #4]
 1022              		.loc 1 229 0
 1023 000e 019A     		ldr	r2, [sp, #4]
 1024 0010 1B68     		ldr	r3, [r3]
 1025 0012 9A42     		cmp	r2, r3
 1026 0014 02D1     		bne	.L113
ARM GAS  /var/folders/0b/rh7d8qts4ys3rdpl8xd_0jkm0000gn/T//cc5KKQdz.s 			page 19


 1027 0016 03B0     		add	sp, sp, #12
 1028              		.cfi_remember_state
 1029              		.cfi_def_cfa_offset 4
 1030              		@ sp needed
 1031 0018 5DF804FB 		ldr	pc, [sp], #4
 1032              	.L113:
 1033              		.cfi_restore_state
 1034 001c FFF7FEFF 		bl	__stack_chk_fail
 1035              	.LVL105:
 1036              	.L115:
 1037              		.align	2
 1038              	.L114:
 1039 0020 00000000 		.word	__stack_chk_guard
 1040 0024 00000000 		.word	.LANCHOR3
 1041              		.cfi_endproc
 1042              	.LFE261:
 1043              		.size	get_line_position, .-get_line_position
 1044              		.section	.text.get_color_detected,"ax",%progbits
 1045              		.align	1
 1046              		.p2align 4,,15
 1047              		.global	get_color_detected
 1048              		.syntax unified
 1049              		.thumb
 1050              		.thumb_func
 1051              		.fpu fpv4-sp-d16
 1052              		.type	get_color_detected, %function
 1053              	get_color_detected:
 1054              	.LFB262:
 1055              		.loc 1 235 0
 1056              		.cfi_startproc
 1057              		@ args = 0, pretend = 0, frame = 8
 1058              		@ frame_needed = 0, uses_anonymous_args = 0
 1059 0000 10B5     		push	{r4, lr}
 1060              		.cfi_def_cfa_offset 8
 1061              		.cfi_offset 4, -8
 1062              		.cfi_offset 14, -4
 1063 0002 0A4C     		ldr	r4, .L121
 1064              	.LBB112:
 1065              	.LBB113:
 1066              		.loc 4 143 0
 1067 0004 0A48     		ldr	r0, .L121+4
 1068              	.LBE113:
 1069              	.LBE112:
 1070              		.loc 1 235 0
 1071 0006 2368     		ldr	r3, [r4]
 1072 0008 82B0     		sub	sp, sp, #8
 1073              		.cfi_def_cfa_offset 16
 1074              		.loc 1 235 0
 1075 000a 0193     		str	r3, [sp, #4]
 1076              	.LVL106:
 1077              	.LBB115:
 1078              	.LBB114:
 1079              		.loc 4 143 0
 1080 000c FFF7FEFF 		bl	chSemWait
 1081              	.LVL107:
 1082              	.LBE114:
 1083              	.LBE115:
ARM GAS  /var/folders/0b/rh7d8qts4ys3rdpl8xd_0jkm0000gn/T//cc5KKQdz.s 			page 20


 1084              		.loc 1 240 0
 1085 0010 FFF7FEFF 		bl	dcmi_get_last_image_ptr
 1086              	.LVL108:
 1087              		.loc 1 241 0
 1088 0014 019A     		ldr	r2, [sp, #4]
 1089 0016 2368     		ldr	r3, [r4]
 1090 0018 9A42     		cmp	r2, r3
 1091 001a 05D1     		bne	.L120
 1092 001c 0549     		ldr	r1, .L121+8
 1093              		.loc 1 243 0
 1094 001e 02B0     		add	sp, sp, #8
 1095              		.cfi_remember_state
 1096              		.cfi_def_cfa_offset 8
 1097              		@ sp needed
 1098 0020 BDE81040 		pop	{r4, lr}
 1099              		.cfi_restore 14
 1100              		.cfi_restore 4
 1101              		.cfi_def_cfa_offset 0
 1102              		.loc 1 241 0
 1103 0024 FFF7FEBF 		b	determine_goals
 1104              	.LVL109:
 1105              	.L120:
 1106              		.cfi_restore_state
 1107 0028 FFF7FEFF 		bl	__stack_chk_fail
 1108              	.LVL110:
 1109              	.L122:
 1110              		.align	2
 1111              	.L121:
 1112 002c 00000000 		.word	__stack_chk_guard
 1113 0030 00000000 		.word	.LANCHOR1
 1114 0034 00000000 		.word	.LANCHOR5
 1115              		.cfi_endproc
 1116              	.LFE262:
 1117              		.size	get_color_detected, .-get_color_detected
 1118              		.section	.text.process_image_start,"ax",%progbits
 1119              		.align	1
 1120              		.p2align 4,,15
 1121              		.global	process_image_start
 1122              		.syntax unified
 1123              		.thumb
 1124              		.thumb_func
 1125              		.fpu fpv4-sp-d16
 1126              		.type	process_image_start, %function
 1127              	process_image_start:
 1128              	.LFB263:
 1129              		.loc 1 248 0
 1130              		.cfi_startproc
 1131              		@ args = 0, pretend = 0, frame = 8
 1132              		@ frame_needed = 0, uses_anonymous_args = 0
 1133 0000 10B5     		push	{r4, lr}
 1134              		.cfi_def_cfa_offset 8
 1135              		.cfi_offset 4, -8
 1136              		.cfi_offset 14, -4
 1137 0002 0A4C     		ldr	r4, .L127
 1138              		.loc 1 249 0
 1139 0004 0A4B     		ldr	r3, .L127+4
 1140              		.loc 1 248 0
ARM GAS  /var/folders/0b/rh7d8qts4ys3rdpl8xd_0jkm0000gn/T//cc5KKQdz.s 			page 21


 1141 0006 2268     		ldr	r2, [r4]
 1142              		.loc 1 249 0
 1143 0008 0A48     		ldr	r0, .L127+8
 1144              		.loc 1 248 0
 1145 000a 84B0     		sub	sp, sp, #16
 1146              		.cfi_def_cfa_offset 24
 1147              		.loc 1 249 0
 1148 000c 4FF41E71 		mov	r1, #632
 1149              		.loc 1 248 0
 1150 0010 0392     		str	r2, [sp, #12]
 1151              		.loc 1 249 0
 1152 0012 0022     		movs	r2, #0
 1153 0014 0092     		str	r2, [sp]
 1154 0016 4022     		movs	r2, #64
 1155 0018 FFF7FEFF 		bl	chThdCreateStatic
 1156              	.LVL111:
 1157              		.loc 1 250 0
 1158 001c 039A     		ldr	r2, [sp, #12]
 1159 001e 2368     		ldr	r3, [r4]
 1160 0020 9A42     		cmp	r2, r3
 1161 0022 01D1     		bne	.L126
 1162 0024 04B0     		add	sp, sp, #16
 1163              		.cfi_remember_state
 1164              		.cfi_def_cfa_offset 8
 1165              		@ sp needed
 1166 0026 10BD     		pop	{r4, pc}
 1167              	.L126:
 1168              		.cfi_restore_state
 1169 0028 FFF7FEFF 		bl	__stack_chk_fail
 1170              	.LVL112:
 1171              	.L128:
 1172              		.align	2
 1173              	.L127:
 1174 002c 00000000 		.word	__stack_chk_guard
 1175 0030 00000000 		.word	CaptureImage
 1176 0034 00000000 		.word	.LANCHOR6
 1177              		.cfi_endproc
 1178              	.LFE263:
 1179              		.size	process_image_start, .-process_image_start
 1180              		.global	lineWidth
 1181              		.section	.bss.image.11401,"aw",%nobits
 1182              		.align	2
 1183              		.set	.LANCHOR4,. + 0
 1184              		.type	image.11401, %object
 1185              		.size	image.11401, 640
 1186              	image.11401:
 1187 0000 00000000 		.space	640
 1187      00000000 
 1187      00000000 
 1187      00000000 
 1187      00000000 
 1188              		.section	.bss.image.11425,"aw",%nobits
 1189              		.align	2
 1190              		.set	.LANCHOR5,. + 0
 1191              		.type	image.11425, %object
 1192              		.size	image.11425, 640
 1193              	image.11425:
ARM GAS  /var/folders/0b/rh7d8qts4ys3rdpl8xd_0jkm0000gn/T//cc5KKQdz.s 			page 22


 1194 0000 00000000 		.space	640
 1194      00000000 
 1194      00000000 
 1194      00000000 
 1194      00000000 
 1195              		.section	.bss.lineWidth,"aw",%nobits
 1196              		.align	1
 1197              		.type	lineWidth, %object
 1198              		.size	lineWidth, 2
 1199              	lineWidth:
 1200 0000 0000     		.space	2
 1201              		.section	.bss.waCaptureImage,"aw",%nobits
 1202              		.align	3
 1203              		.set	.LANCHOR6,. + 0
 1204              		.type	waCaptureImage, %object
 1205              		.size	waCaptureImage, 632
 1206              	waCaptureImage:
 1207 0000 00000000 		.space	632
 1207      00000000 
 1207      00000000 
 1207      00000000 
 1207      00000000 
 1208              		.section	.data.image_ready_sem,"aw",%progbits
 1209              		.align	2
 1210              		.set	.LANCHOR1,. + 0
 1211              		.type	image_ready_sem, %object
 1212              		.size	image_ready_sem, 12
 1213              	image_ready_sem:
 1214 0000 00000000 		.word	image_ready_sem
 1215 0004 00000000 		.word	image_ready_sem
 1216 0008 00000000 		.word	0
 1217              		.section	.data.line_position,"aw",%progbits
 1218              		.align	1
 1219              		.set	.LANCHOR3,. + 0
 1220              		.type	line_position, %object
 1221              		.size	line_position, 2
 1222              	line_position:
 1223 0000 4001     		.short	320
 1224              		.section	.rodata.__FUNCTION__.11395,"a",%progbits
 1225              		.align	2
 1226              		.set	.LANCHOR0,. + 0
 1227              		.type	__FUNCTION__.11395, %object
 1228              		.size	__FUNCTION__.11395, 13
 1229              	__FUNCTION__.11395:
 1230 0000 43617074 		.ascii	"CaptureImage\000"
 1230      75726549 
 1230      6D616765 
 1230      00
 1231              		.section	.rodata.__func__.7153,"a",%progbits
 1232              		.align	2
 1233              		.set	.LANCHOR2,. + 0
 1234              		.type	__func__.7153, %object
 1235              		.size	__func__.7153, 12
 1236              	__func__.7153:
 1237 0000 63685379 		.ascii	"chSysUnlock\000"
 1237      73556E6C 
 1237      6F636B00 
ARM GAS  /var/folders/0b/rh7d8qts4ys3rdpl8xd_0jkm0000gn/T//cc5KKQdz.s 			page 23


 1238              		.text
 1239              	.Letext0:
 1240              		.file 6 "/Applications/Eclipse_e-puck2.app/Contents/Eclipse_e-puck2/Tools/gcc-arm-none-eabi-7-2017
 1241              		.file 7 "/Applications/Eclipse_e-puck2.app/Contents/Eclipse_e-puck2/Tools/gcc-arm-none-eabi-7-2017
 1242              		.file 8 "/Applications/Eclipse_e-puck2.app/Contents/Eclipse_e-puck2/Tools/gcc-arm-none-eabi-7-2017
 1243              		.file 9 "../../lib/e-puck2_main-processor/ChibiOS//os/rt/ports/ARMCMx/compilers/GCC/chtypes.h"
 1244              		.file 10 "../../lib/e-puck2_main-processor/ChibiOS//os/rt/include/chsystypes.h"
 1245              		.file 11 "../../lib/e-puck2_main-processor/ChibiOS//os/rt/include/chschd.h"
 1246              		.file 12 "../../lib/e-puck2_main-processor/ChibiOS//os/ext/CMSIS/include/core_cm4.h"
 1247              		.file 13 "../../lib/e-puck2_main-processor/ChibiOS//os/ext/CMSIS/ST/system_stm32f4xx.h"
 1248              		.file 14 "../../lib/e-puck2_main-processor/ChibiOS//os/ext/CMSIS/ST/stm32f407xx.h"
 1249              		.file 15 "../../lib/e-puck2_main-processor/ChibiOS//os/rt/ports/ARMCMx/chcore.h"
 1250              		.file 16 "../../lib/e-puck2_main-processor/ChibiOS//os/rt/ports/ARMCMx/chcore_v7m.h"
 1251              		.file 17 "../../lib/e-puck2_main-processor/ChibiOS//os/rt/include/chdebug.h"
 1252              		.file 18 "../../lib/e-puck2_main-processor/ChibiOS//os/rt/include/chtm.h"
 1253              		.file 19 "../../lib/e-puck2_main-processor/ChibiOS//os/rt/include/chstats.h"
 1254              		.file 20 "../../lib/e-puck2_main-processor/ChibiOS//os/rt/include/chsem.h"
 1255              		.file 21 "../../lib/e-puck2_main-processor/ChibiOS//os/rt/include/chmtx.h"
 1256              		.file 22 "../../lib/e-puck2_main-processor/ChibiOS//os/rt/include/chevents.h"
 1257              		.file 23 "../../lib/e-puck2_main-processor/ChibiOS//os/rt/include/chqueues.h"
 1258              		.file 24 "../../lib/e-puck2_main-processor/ChibiOS//os/hal/ports/STM32/STM32F4xx/stm32_dma.h"
 1259              		.file 25 "../../lib/e-puck2_main-processor/ChibiOS//os/hal/include/hal_ioblock.h"
 1260              		.file 26 "../../lib/e-puck2_main-processor/ChibiOS//os/hal/ports/STM32/LLD/GPIOv2/pal_lld.h"
 1261              		.file 27 "../../lib/e-puck2_main-processor/ChibiOS//os/hal/include/adc.h"
 1262              		.file 28 "../../lib/e-puck2_main-processor/ChibiOS//os/hal/ports/STM32/STM32F4xx/adc_lld.h"
 1263              		.file 29 "../../lib/e-puck2_main-processor/ChibiOS//os/hal/include/can.h"
 1264              		.file 30 "../../lib/e-puck2_main-processor/ChibiOS//os/hal/ports/STM32/LLD/can_lld.h"
 1265              		.file 31 "../../lib/e-puck2_main-processor/ChibiOS//os/hal/include/dac.h"
 1266              		.file 32 "../../lib/e-puck2_main-processor/ChibiOS//os/hal/ports/STM32/LLD/DACv1/dac_lld.h"
 1267              		.file 33 "../../lib/e-puck2_main-processor/ChibiOS//os/hal/include/ext.h"
 1268              		.file 34 "../../lib/e-puck2_main-processor/ChibiOS//os/hal/ports/STM32/LLD/ext_lld.h"
 1269              		.file 35 "../../lib/e-puck2_main-processor/ChibiOS//os/hal/include/gpt.h"
 1270              		.file 36 "../../lib/e-puck2_main-processor/ChibiOS//os/hal/ports/STM32/LLD/TIMv1/gpt_lld.h"
 1271              		.file 37 "../../lib/e-puck2_main-processor/ChibiOS//os/hal/ports/STM32/LLD/TIMv1/stm32_tim.h"
 1272              		.file 38 "../../lib/e-puck2_main-processor/ChibiOS//os/hal/include/i2c.h"
 1273              		.file 39 "../../lib/e-puck2_main-processor/ChibiOS//os/hal/ports/STM32/LLD/I2Cv1/i2c_lld.h"
 1274              		.file 40 "../../lib/e-puck2_main-processor/ChibiOS//os/hal/include/i2s.h"
 1275              		.file 41 "../../lib/e-puck2_main-processor/ChibiOS//os/hal/ports/STM32/LLD/SPIv1/i2s_lld.h"
 1276              		.file 42 "../../lib/e-puck2_main-processor/ChibiOS//os/hal/include/pwm.h"
 1277              		.file 43 "../../lib/e-puck2_main-processor/ChibiOS//os/hal/ports/STM32/LLD/TIMv1/pwm_lld.h"
 1278              		.file 44 "../../lib/e-puck2_main-processor/ChibiOS//os/hal/include/serial.h"
 1279              		.file 45 "../../lib/e-puck2_main-processor/ChibiOS//os/hal/ports/STM32/LLD/USARTv1/serial_lld.h"
 1280              		.file 46 "../../lib/e-puck2_main-processor/ChibiOS//os/hal/include/sdc.h"
 1281              		.file 47 "../../lib/e-puck2_main-processor/ChibiOS//os/hal/ports/STM32/LLD/sdc_lld.h"
 1282              		.file 48 "../../lib/e-puck2_main-processor/ChibiOS//os/hal/include/spi.h"
 1283              		.file 49 "../../lib/e-puck2_main-processor/ChibiOS//os/hal/ports/STM32/LLD/SPIv1/spi_lld.h"
 1284              		.file 50 "../../lib/e-puck2_main-processor/ChibiOS//os/hal/include/usb.h"
 1285              		.file 51 "../../lib/e-puck2_main-processor/ChibiOS//os/hal/ports/STM32/LLD/OTGv1/usb_lld.h"
 1286              		.file 52 "../../lib/e-puck2_main-processor/ChibiOS//os/hal/ports/STM32/LLD/OTGv1/stm32_otg.h"
 1287              		.file 53 "../../lib/e-puck2_main-processor/ChibiOS//os/hal/include/serial_usb.h"
 1288              		.file 54 "../../lib/e-puck2_main-processor/src/usbcfg.h"
 1289              		.file 55 "../../lib/e-puck2_main-processor/ChibiOS_ext/os/hal/include/../ports/STM32/STM32F4xx/dcm
 1290              		.file 56 "../../lib/e-puck2_main-processor/src/camera/po8030.h"
 1291              		.file 57 "../../lib/e-puck2_main-processor/src/camera/dcmi_camera.h"
 1292              		.file 58 "/Applications/Eclipse_e-puck2.app/Contents/Eclipse_e-puck2/Tools/gcc-arm-none-eabi-7-201
 1293              		.file 59 "/Applications/Eclipse_e-puck2.app/Contents/Eclipse_e-puck2/Tools/gcc-arm-none-eabi-7-201
 1294              		.file 60 "/Applications/Eclipse_e-puck2.app/Contents/Eclipse_e-puck2/Tools/gcc-arm-none-eabi-7-201
ARM GAS  /var/folders/0b/rh7d8qts4ys3rdpl8xd_0jkm0000gn/T//cc5KKQdz.s 			page 24


 1295              		.file 61 "../../lib/e-puck2_main-processor/src/msgbus/messagebus.h"
 1296              		.file 62 "/Applications/Eclipse_e-puck2.app/Contents/Eclipse_e-puck2/Tools/gcc-arm-none-eabi-7-201
 1297              		.file 63 "/Applications/Eclipse_e-puck2.app/Contents/Eclipse_e-puck2/Tools/gcc-arm-none-eabi-7-201
 1298              		.file 64 "../../lib/e-puck2_main-processor/src/parameter/parameter.h"
 1299              		.file 65 "./main.h"
 1300              		.file 66 "../../lib/e-puck2_main-processor/ChibiOS//os/rt/include/chthreads.h"
 1301              		.file 67 "./robotmvmts.h"