ARM GAS  /var/folders/0b/rh7d8qts4ys3rdpl8xd_0jkm0000gn/T//cczAkeGu.s 			page 1


   1              		.cpu cortex-m4
   2              		.eabi_attribute 27, 1
   3              		.eabi_attribute 28, 1
   4              		.eabi_attribute 20, 1
   5              		.eabi_attribute 21, 1
   6              		.eabi_attribute 23, 3
   7              		.eabi_attribute 24, 1
   8              		.eabi_attribute 25, 1
   9              		.eabi_attribute 26, 1
  10              		.eabi_attribute 30, 2
  11              		.eabi_attribute 34, 1
  12              		.eabi_attribute 18, 4
  13              		.file	"proximity.c"
  14              		.text
  15              	.Ltext0:
  16              		.cfi_sections	.debug_frame
  17              		.section	.text.pwm_reset_cb,"ax",%progbits
  18              		.align	1
  19              		.p2align 4,,15
  20              		.syntax unified
  21              		.thumb
  22              		.thumb_func
  23              		.fpu fpv4-sp-d16
  24              		.type	pwm_reset_cb, %function
  25              	pwm_reset_cb:
  26              	.LFB261:
  27              		.file 1 "../../lib/e-puck2_main-processor/src/sensors/proximity.c"
  28              		.loc 1 233 0
  29              		.cfi_startproc
  30              		@ args = 0, pretend = 0, frame = 8
  31              		@ frame_needed = 0, uses_anonymous_args = 0
  32              	.LVL0:
  33 0000 10B5     		push	{r4, lr}
  34              		.cfi_def_cfa_offset 8
  35              		.cfi_offset 4, -8
  36              		.cfi_offset 14, -4
  37              		.loc 1 235 0
  38 0002 1E49     		ldr	r1, .L16
  39              		.loc 1 233 0
  40 0004 1E4A     		ldr	r2, .L16+4
  41              		.loc 1 235 0
  42 0006 0B78     		ldrb	r3, [r1]	@ zero_extendqisi2
  43              		.loc 1 233 0
  44 0008 1068     		ldr	r0, [r2]
  45              	.LVL1:
  46 000a 82B0     		sub	sp, sp, #8
  47              		.cfi_def_cfa_offset 16
  48              		.loc 1 235 0
  49 000c 013B     		subs	r3, r3, #1
  50              		.loc 1 233 0
  51 000e 0190     		str	r0, [sp, #4]
  52              		.loc 1 235 0
  53 0010 072B     		cmp	r3, #7
  54 0012 0AD8     		bhi	.L1
  55 0014 DFE803F0 		tbb	[pc, r3]
  56              	.L4:
  57 0018 12       		.byte	(.L3-.L4)/2
ARM GAS  /var/folders/0b/rh7d8qts4ys3rdpl8xd_0jkm0000gn/T//cczAkeGu.s 			page 2


  58 0019 15       		.byte	(.L5-.L4)/2
  59 001a 1C       		.byte	(.L6-.L4)/2
  60 001b 1F       		.byte	(.L7-.L4)/2
  61 001c 26       		.byte	(.L8-.L4)/2
  62 001d 29       		.byte	(.L9-.L4)/2
  63 001e 0F       		.byte	(.L10-.L4)/2
  64 001f 04       		.byte	(.L11-.L4)/2
  65              		.p2align 1
  66              	.L11:
  67              		.loc 1 263 0
  68 0020 1848     		ldr	r0, .L16+8
  69 0022 0824     		movs	r4, #8
  70              		.loc 1 264 0
  71 0024 0123     		movs	r3, #1
  72              		.loc 1 263 0
  73 0026 0483     		strh	r4, [r0, #24]	@ movhi
  74              		.loc 1 264 0
  75 0028 0B70     		strb	r3, [r1]
  76              	.L1:
  77              		.loc 1 267 0
  78 002a 0199     		ldr	r1, [sp, #4]
  79 002c 1368     		ldr	r3, [r2]
  80 002e 9942     		cmp	r1, r3
  81 0030 21D1     		bne	.L15
  82 0032 02B0     		add	sp, sp, #8
  83              		.cfi_remember_state
  84              		.cfi_def_cfa_offset 8
  85              		@ sp needed
  86 0034 10BD     		pop	{r4, pc}
  87              	.L10:
  88              		.cfi_restore_state
  89              		.loc 1 260 0
  90 0036 0823     		movs	r3, #8
  91 0038 0B70     		strb	r3, [r1]
  92              		.loc 1 261 0
  93 003a F6E7     		b	.L1
  94              	.L3:
  95              		.loc 1 239 0
  96 003c 0223     		movs	r3, #2
  97 003e 0B70     		strb	r3, [r1]
  98              		.loc 1 240 0
  99 0040 F3E7     		b	.L1
 100              	.L5:
 101              		.loc 1 242 0
 102 0042 1148     		ldr	r0, .L16+12
 103 0044 4FF48054 		mov	r4, #4096
 104              		.loc 1 243 0
 105 0048 0323     		movs	r3, #3
 106              		.loc 1 242 0
 107 004a 0483     		strh	r4, [r0, #24]	@ movhi
 108              		.loc 1 243 0
 109 004c 0B70     		strb	r3, [r1]
 110              		.loc 1 244 0
 111 004e ECE7     		b	.L1
 112              	.L6:
 113              		.loc 1 246 0
 114 0050 0423     		movs	r3, #4
ARM GAS  /var/folders/0b/rh7d8qts4ys3rdpl8xd_0jkm0000gn/T//cczAkeGu.s 			page 3


 115 0052 0B70     		strb	r3, [r1]
 116              		.loc 1 247 0
 117 0054 E9E7     		b	.L1
 118              	.L7:
 119              		.loc 1 249 0
 120 0056 0C48     		ldr	r0, .L16+12
 121 0058 4FF48044 		mov	r4, #16384
 122              		.loc 1 250 0
 123 005c 0523     		movs	r3, #5
 124              		.loc 1 249 0
 125 005e 0483     		strh	r4, [r0, #24]	@ movhi
 126              		.loc 1 250 0
 127 0060 0B70     		strb	r3, [r1]
 128              		.loc 1 251 0
 129 0062 E2E7     		b	.L1
 130              	.L8:
 131              		.loc 1 253 0
 132 0064 0623     		movs	r3, #6
 133 0066 0B70     		strb	r3, [r1]
 134              		.loc 1 254 0
 135 0068 DFE7     		b	.L1
 136              	.L9:
 137              		.loc 1 256 0
 138 006a 0648     		ldr	r0, .L16+8
 139 006c 0424     		movs	r4, #4
 140              		.loc 1 257 0
 141 006e 0723     		movs	r3, #7
 142              		.loc 1 256 0
 143 0070 0483     		strh	r4, [r0, #24]	@ movhi
 144              		.loc 1 257 0
 145 0072 0B70     		strb	r3, [r1]
 146              		.loc 1 258 0
 147 0074 D9E7     		b	.L1
 148              	.L15:
 149              		.loc 1 267 0
 150 0076 FFF7FEFF 		bl	__stack_chk_fail
 151              	.LVL2:
 152              	.L17:
 153 007a 00BF     		.align	2
 154              	.L16:
 155 007c 00000000 		.word	.LANCHOR0
 156 0080 00000000 		.word	__stack_chk_guard
 157 0084 00100240 		.word	1073876992
 158 0088 00040240 		.word	1073873920
 159              		.cfi_endproc
 160              	.LFE261:
 161              		.size	pwm_reset_cb, .-pwm_reset_cb
 162              		.section	.text.pwm_ch1_cb,"ax",%progbits
 163              		.align	1
 164              		.p2align 4,,15
 165              		.syntax unified
 166              		.thumb
 167              		.thumb_func
 168              		.fpu fpv4-sp-d16
 169              		.type	pwm_ch1_cb, %function
 170              	pwm_ch1_cb:
 171              	.LFB262:
ARM GAS  /var/folders/0b/rh7d8qts4ys3rdpl8xd_0jkm0000gn/T//cczAkeGu.s 			page 4


 172              		.loc 1 276 0
 173              		.cfi_startproc
 174              		@ args = 0, pretend = 0, frame = 8
 175              		@ frame_needed = 0, uses_anonymous_args = 0
 176              	.LVL3:
 177 0000 30B5     		push	{r4, r5, lr}
 178              		.cfi_def_cfa_offset 12
 179              		.cfi_offset 4, -12
 180              		.cfi_offset 5, -8
 181              		.cfi_offset 14, -4
 182 0002 0C4B     		ldr	r3, .L22
 183              		.loc 1 279 0
 184 0004 0C49     		ldr	r1, .L22+4
 185              		.loc 1 276 0
 186 0006 1868     		ldr	r0, [r3]
 187              	.LVL4:
 188              		.loc 1 281 0
 189 0008 0C4A     		ldr	r2, .L22+8
 190              		.loc 1 276 0
 191 000a 83B0     		sub	sp, sp, #12
 192              		.cfi_def_cfa_offset 24
 193              		.loc 1 280 0
 194 000c 4FF48045 		mov	r5, #16384
 195              		.loc 1 276 0
 196 0010 0190     		str	r0, [sp, #4]
 197              		.loc 1 279 0
 198 0012 4FF48050 		mov	r0, #4096
 199 0016 4883     		strh	r0, [r1, #26]	@ movhi
 200              		.loc 1 281 0
 201 0018 0424     		movs	r4, #4
 202              		.loc 1 282 0
 203 001a 0820     		movs	r0, #8
 204              		.loc 1 280 0
 205 001c 4D83     		strh	r5, [r1, #26]	@ movhi
 206              		.loc 1 281 0
 207 001e 5483     		strh	r4, [r2, #26]	@ movhi
 208              		.loc 1 282 0
 209 0020 5083     		strh	r0, [r2, #26]	@ movhi
 210              		.loc 1 283 0
 211 0022 019A     		ldr	r2, [sp, #4]
 212 0024 1B68     		ldr	r3, [r3]
 213 0026 9A42     		cmp	r2, r3
 214 0028 01D1     		bne	.L21
 215 002a 03B0     		add	sp, sp, #12
 216              		.cfi_remember_state
 217              		.cfi_def_cfa_offset 12
 218              		@ sp needed
 219 002c 30BD     		pop	{r4, r5, pc}
 220              	.L21:
 221              		.cfi_restore_state
 222 002e FFF7FEFF 		bl	__stack_chk_fail
 223              	.LVL5:
 224              	.L23:
 225 0032 00BF     		.align	2
 226              	.L22:
 227 0034 00000000 		.word	__stack_chk_guard
 228 0038 00040240 		.word	1073873920
ARM GAS  /var/folders/0b/rh7d8qts4ys3rdpl8xd_0jkm0000gn/T//cczAkeGu.s 			page 5


 229 003c 00100240 		.word	1073876992
 230              		.cfi_endproc
 231              	.LFE262:
 232              		.size	pwm_ch1_cb, .-pwm_ch1_cb
 233              		.section	.text.proximity_thd,"ax",%progbits
 234              		.align	1
 235              		.p2align 4,,15
 236              		.syntax unified
 237              		.thumb
 238              		.thumb_func
 239              		.fpu fpv4-sp-d16
 240              		.type	proximity_thd, %function
 241              	proximity_thd:
 242              	.LFB260:
 243              		.loc 1 161 0
 244              		.cfi_startproc
 245              		@ args = 0, pretend = 0, frame = 136
 246              		@ frame_needed = 0, uses_anonymous_args = 0
 247              	.LVL6:
 248 0000 2DE9F04F 		push	{r4, r5, r6, r7, r8, r9, r10, fp, lr}
 249              		.cfi_def_cfa_offset 36
 250              		.cfi_offset 4, -36
 251              		.cfi_offset 5, -32
 252              		.cfi_offset 6, -28
 253              		.cfi_offset 7, -24
 254              		.cfi_offset 8, -20
 255              		.cfi_offset 9, -16
 256              		.cfi_offset 10, -12
 257              		.cfi_offset 11, -8
 258              		.cfi_offset 14, -4
 259              	.LBB48:
 260              	.LBB49:
 261              		.file 2 "../../lib/e-puck2_main-processor/ChibiOS//os/rt/include/chregistry.h"
 262              		.loc 2 135 0
 263 0004 4E4B     		ldr	r3, .L41
 264              	.LBE49:
 265              	.LBE48:
 266              		.loc 1 161 0
 267 0006 4F4A     		ldr	r2, .L41+4
 268              	.LBB51:
 269              	.LBB50:
 270              		.loc 2 135 0
 271 0008 9B69     		ldr	r3, [r3, #24]
 272 000a 4F49     		ldr	r1, .L41+8
 273 000c 9961     		str	r1, [r3, #24]
 274              	.LBE50:
 275              	.LBE51:
 276              		.loc 1 161 0
 277 000e A5B0     		sub	sp, sp, #148
 278              		.cfi_def_cfa_offset 184
 279              		.loc 1 166 0
 280 0010 07AE     		add	r6, sp, #28
 281              		.loc 1 167 0
 282 0012 05AD     		add	r5, sp, #20
 283              		.loc 1 168 0
 284 0014 8023     		movs	r3, #128
 285              		.loc 1 161 0
ARM GAS  /var/folders/0b/rh7d8qts4ys3rdpl8xd_0jkm0000gn/T//cczAkeGu.s 			page 6


 286 0016 1768     		ldr	r7, [r2]
 287              		.loc 1 168 0
 288 0018 0093     		str	r3, [sp]
 289 001a 3146     		mov	r1, r6
 290 001c 2A46     		mov	r2, r5
 291              		.loc 1 166 0
 292 001e 0024     		movs	r4, #0
 293              		.loc 1 168 0
 294 0020 0CA8     		add	r0, sp, #48
 295              	.LVL7:
 296 0022 4A4B     		ldr	r3, .L41+12
 297              		.loc 1 161 0
 298 0024 2397     		str	r7, [sp, #140]
 299              		.loc 1 166 0
 300 0026 CDE90766 		strd	r6, r6, [sp, #28]
 301              		.loc 1 167 0
 302 002a CDE90555 		strd	r5, r5, [sp, #20]
 303              		.loc 1 166 0
 304 002e CDE90944 		strd	r4, r4, [sp, #36]
 305 0032 0B94     		str	r4, [sp, #44]
 306              		.loc 1 168 0
 307 0034 FFF7FEFF 		bl	messagebus_topic_init
 308              	.LVL8:
 309              		.loc 1 169 0
 310 0038 0CA9     		add	r1, sp, #48
 311 003a 454A     		ldr	r2, .L41+16
 312 003c 4548     		ldr	r0, .L41+20
 313 003e 434C     		ldr	r4, .L41+12
 314 0040 454D     		ldr	r5, .L41+24
 315 0042 DFF83481 		ldr	r8, .L41+56
 316 0046 DFF834B1 		ldr	fp, .L41+60
 317              	.LBB52:
 318              	.LBB53:
 319              		.file 3 "../../lib/e-puck2_main-processor/ChibiOS//os/rt/include/chbsem.h"
 320              		.loc 3 143 0
 321 004a DFF834A1 		ldr	r10, .L41+64
 322              	.LBE53:
 323              	.LBE52:
 324              		.loc 1 169 0
 325 004e FFF7FEFF 		bl	messagebus_advertise_topic
 326              	.LVL9:
 327 0052 04F11C06 		add	r6, r4, #28
 328 0056 04F16007 		add	r7, r4, #96
 329              		.loc 1 197 0
 330 005a A146     		mov	r9, r4
 331              	.L25:
 332              	.LVL10:
 333              	.LBB55:
 334              	.LBB54:
 335              		.loc 3 143 0
 336 005c 5046     		mov	r0, r10
 337 005e FFF7FEFF 		bl	chSemWait
 338              	.LVL11:
 339              	.LBE54:
 340              	.LBE55:
 341              		.loc 1 175 0
 342 0062 2A68     		ldr	r2, [r5]
ARM GAS  /var/folders/0b/rh7d8qts4ys3rdpl8xd_0jkm0000gn/T//cczAkeGu.s 			page 7


 343              		.loc 1 176 0
 344 0064 2B69     		ldr	r3, [r5, #16]
 345              		.loc 1 175 0
 346 0066 2260     		str	r2, [r4]
 347              		.loc 1 176 0
 348 0068 6360     		str	r3, [r4, #4]
 349              		.loc 1 177 0
 350 006a 2A6A     		ldr	r2, [r5, #32]
 351              		.loc 1 178 0
 352 006c 2B6B     		ldr	r3, [r5, #48]
 353              		.loc 1 177 0
 354 006e A260     		str	r2, [r4, #8]
 355              		.loc 1 178 0
 356 0070 E360     		str	r3, [r4, #12]
 357              		.loc 1 179 0
 358 0072 6A68     		ldr	r2, [r5, #4]
 359              		.loc 1 180 0
 360 0074 6B69     		ldr	r3, [r5, #20]
 361              		.loc 1 179 0
 362 0076 2261     		str	r2, [r4, #16]
 363              		.loc 1 180 0
 364 0078 6361     		str	r3, [r4, #20]
 365              		.loc 1 181 0
 366 007a 6A6A     		ldr	r2, [r5, #36]
 367              		.loc 1 182 0
 368 007c 6B6B     		ldr	r3, [r5, #52]
 369              		.loc 1 181 0
 370 007e A261     		str	r2, [r4, #24]
 371              		.loc 1 182 0
 372 0080 E361     		str	r3, [r4, #28]
 373              		.loc 1 184 0
 374 0082 AA68     		ldr	r2, [r5, #8]
 375              		.loc 1 185 0
 376 0084 AB69     		ldr	r3, [r5, #24]
 377              		.loc 1 184 0
 378 0086 2262     		str	r2, [r4, #32]
 379              		.loc 1 185 0
 380 0088 6362     		str	r3, [r4, #36]
 381              		.loc 1 186 0
 382 008a AA6A     		ldr	r2, [r5, #40]
 383              		.loc 1 187 0
 384 008c AB6B     		ldr	r3, [r5, #56]
 385              		.loc 1 186 0
 386 008e A262     		str	r2, [r4, #40]
 387              		.loc 1 187 0
 388 0090 E362     		str	r3, [r4, #44]
 389              		.loc 1 188 0
 390 0092 EA68     		ldr	r2, [r5, #12]
 391              		.loc 1 189 0
 392 0094 EB69     		ldr	r3, [r5, #28]
 393              		.loc 1 188 0
 394 0096 2263     		str	r2, [r4, #48]
 395              		.loc 1 189 0
 396 0098 6363     		str	r3, [r4, #52]
 397              		.loc 1 190 0
 398 009a EA6A     		ldr	r2, [r5, #44]
 399              		.loc 1 191 0
ARM GAS  /var/folders/0b/rh7d8qts4ys3rdpl8xd_0jkm0000gn/T//cczAkeGu.s 			page 8


 400 009c EB6B     		ldr	r3, [r5, #60]
 401 009e 2F49     		ldr	r1, .L41+28
 402              		.loc 1 190 0
 403 00a0 A263     		str	r2, [r4, #56]
 404              		.loc 1 191 0
 405 00a2 E363     		str	r3, [r4, #60]
 406              	.LVL12:
 407              	.L27:
 408              	.LBB56:
 409              		.loc 1 194 0 discriminator 3
 410 00a4 51F8043F 		ldr	r3, [r1, #4]!
 411 00a8 0A6A     		ldr	r2, [r1, #32]
 412              		.loc 1 193 0 discriminator 3
 413 00aa B142     		cmp	r1, r6
 414              		.loc 1 194 0 discriminator 3
 415 00ac A3EB0203 		sub	r3, r3, r2
 416 00b0 0B64     		str	r3, [r1, #64]
 417              		.loc 1 193 0 discriminator 3
 418 00b2 F7D1     		bne	.L27
 419              	.LBE56:
 420              		.loc 1 197 0
 421 00b4 8022     		movs	r2, #128
 422 00b6 4946     		mov	r1, r9
 423 00b8 0CA8     		add	r0, sp, #48
 424 00ba FFF7FEFF 		bl	messagebus_topic_publish
 425              	.LVL13:
 426              		.loc 1 199 0
 427 00be 98F80030 		ldrb	r3, [r8]	@ zero_extendqisi2
 428 00c2 002B     		cmp	r3, #0
 429 00c4 CAD0     		beq	.L25
 430              		.loc 1 200 0
 431 00c6 9BF80030 		ldrb	r3, [fp]	@ zero_extendqisi2
 432 00ca 33B3     		cbz	r3, .L29
 433 00cc 012B     		cmp	r3, #1
 434 00ce C5D1     		bne	.L25
 435 00d0 DFF8B0C0 		ldr	ip, .L41+68
 436 00d4 2248     		ldr	r0, .L41+32
 437 00d6 6146     		mov	r1, ip
 438              	.L31:
 439              	.LBB57:
 440              	.LBB58:
 441              	.LBB59:
 442              		.loc 1 343 0 discriminator 3
 443 00d8 50F8042B 		ldr	r2, [r0], #4
 444              	.LBE59:
 445              	.LBE58:
 446              		.loc 1 210 0 discriminator 3
 447 00dc 51F8043F 		ldr	r3, [r1, #4]!
 448              		.loc 1 209 0 discriminator 3
 449 00e0 B842     		cmp	r0, r7
 450              		.loc 1 210 0 discriminator 3
 451 00e2 1344     		add	r3, r3, r2
 452 00e4 0B60     		str	r3, [r1]
 453              	.LVL14:
 454              		.loc 1 209 0 discriminator 3
 455 00e6 F7D1     		bne	.L31
 456              	.LBE57:
ARM GAS  /var/folders/0b/rh7d8qts4ys3rdpl8xd_0jkm0000gn/T//cczAkeGu.s 			page 9


 457              		.loc 1 212 0
 458 00e8 1E4A     		ldr	r2, .L41+36
 459 00ea 1378     		ldrb	r3, [r2]	@ zero_extendqisi2
 460 00ec 0133     		adds	r3, r3, #1
 461 00ee DBB2     		uxtb	r3, r3
 462              		.loc 1 213 0
 463 00f0 642B     		cmp	r3, #100
 464              		.loc 1 212 0
 465 00f2 1370     		strb	r3, [r2]
 466              		.loc 1 213 0
 467 00f4 B2D1     		bne	.L25
 468 00f6 1C49     		ldr	r1, .L41+40
 469              	.L32:
 470              	.LBB60:
 471              		.loc 1 215 0 discriminator 3
 472 00f8 5CF8043F 		ldr	r3, [ip, #4]!
 473 00fc 1B4A     		ldr	r2, .L41+44
 474 00fe 82FB0302 		smull	r0, r2, r2, r3
 475 0102 DB17     		asrs	r3, r3, #31
 476 0104 C3EB6213 		rsb	r3, r3, r2, asr #5
 477 0108 41F8043B 		str	r3, [r1], #4
 478              	.LVL15:
 479              		.loc 1 214 0 discriminator 3
 480 010c 184B     		ldr	r3, .L41+48
 481 010e 9C45     		cmp	ip, r3
 482 0110 F2D1     		bne	.L32
 483              	.LBE60:
 484              		.loc 1 217 0
 485 0112 0023     		movs	r3, #0
 486 0114 88F80030 		strb	r3, [r8]
 487 0118 A0E7     		b	.L25
 488              	.L29:
 489              		.loc 1 202 0
 490 011a 1946     		mov	r1, r3
 491 011c 2022     		movs	r2, #32
 492 011e 1248     		ldr	r0, .L41+40
 493 0120 0393     		str	r3, [sp, #12]
 494 0122 FFF7FEFF 		bl	memset
 495              	.LVL16:
 496              		.loc 1 203 0
 497 0126 039B     		ldr	r3, [sp, #12]
 498 0128 1248     		ldr	r0, .L41+52
 499 012a 1946     		mov	r1, r3
 500 012c 2022     		movs	r2, #32
 501 012e FFF7FEFF 		bl	memset
 502              	.LVL17:
 503              		.loc 1 204 0
 504 0132 0C49     		ldr	r1, .L41+36
 505 0134 039B     		ldr	r3, [sp, #12]
 506 0136 0B70     		strb	r3, [r1]
 507              		.loc 1 205 0
 508 0138 0122     		movs	r2, #1
 509 013a 8BF80020 		strb	r2, [fp]
 510              		.loc 1 206 0
 511 013e 8DE7     		b	.L25
 512              	.L42:
 513              		.align	2
ARM GAS  /var/folders/0b/rh7d8qts4ys3rdpl8xd_0jkm0000gn/T//cczAkeGu.s 			page 10


 514              	.L41:
 515 0140 00000000 		.word	ch
 516 0144 00000000 		.word	__stack_chk_guard
 517 0148 00000000 		.word	.LANCHOR1
 518 014c 00000000 		.word	.LANCHOR2
 519 0150 00000000 		.word	.LC0
 520 0154 00000000 		.word	bus
 521 0158 00000000 		.word	.LANCHOR4
 522 015c FCFFFFFF 		.word	.LANCHOR2-4
 523 0160 40000000 		.word	.LANCHOR2+64
 524 0164 00000000 		.word	.LANCHOR8
 525 0168 60000000 		.word	.LANCHOR2+96
 526 016c 1F85EB51 		.word	1374389535
 527 0170 1C000000 		.word	.LANCHOR7+28
 528 0174 00000000 		.word	.LANCHOR7
 529 0178 00000000 		.word	.LANCHOR5
 530 017c 00000000 		.word	.LANCHOR6
 531 0180 00000000 		.word	.LANCHOR3
 532 0184 FCFFFFFF 		.word	.LANCHOR7-4
 533              		.cfi_endproc
 534              	.LFE260:
 535              		.size	proximity_thd, .-proximity_thd
 536              		.section	.text.adc_cb,"ax",%progbits
 537              		.align	1
 538              		.p2align 4,,15
 539              		.syntax unified
 540              		.thumb
 541              		.thumb_func
 542              		.fpu fpv4-sp-d16
 543              		.type	adc_cb, %function
 544              	adc_cb:
 545              	.LFB259:
 546              		.loc 1 67 0
 547              		.cfi_startproc
 548              		@ args = 0, pretend = 0, frame = 8
 549              		@ frame_needed = 0, uses_anonymous_args = 0
 550              	.LVL18:
 551 0000 70B5     		push	{r4, r5, r6, lr}
 552              		.cfi_def_cfa_offset 16
 553              		.cfi_offset 4, -16
 554              		.cfi_offset 5, -12
 555              		.cfi_offset 6, -8
 556              		.cfi_offset 14, -4
 557              		.loc 1 74 0
 558 0002 0269     		ldr	r2, [r0, #16]
 559              	.LVL19:
 560              		.loc 1 67 0
 561 0004 1E4D     		ldr	r5, .L55
 562              		.loc 1 74 0
 563 0006 5288     		ldrh	r2, [r2, #2]
 564              		.loc 1 67 0
 565 0008 2B68     		ldr	r3, [r5]
 566 000a 82B0     		sub	sp, sp, #8
 567              		.cfi_def_cfa_offset 24
 568              		.loc 1 67 0
 569 000c 0646     		mov	r6, r0
 570 000e 0C46     		mov	r4, r1
ARM GAS  /var/folders/0b/rh7d8qts4ys3rdpl8xd_0jkm0000gn/T//cczAkeGu.s 			page 11


 571              		.loc 1 74 0
 572 0010 1C48     		ldr	r0, .L55+4
 573              	.LVL20:
 574              		.loc 1 67 0
 575 0012 0193     		str	r3, [sp, #4]
 576              	.LVL21:
 577              		.loc 1 74 0
 578 0014 9200     		lsls	r2, r2, #2
 579 0016 0021     		movs	r1, #0
 580              	.LVL22:
 581 0018 FFF7FEFF 		bl	memset
 582              	.LVL23:
 583              	.LBB61:
 584              		.loc 1 77 0
 585 001c 3369     		ldr	r3, [r6, #16]
 586 001e 5B88     		ldrh	r3, [r3, #2]
 587 0020 5BB1     		cbz	r3, .L44
 588 0022 184A     		ldr	r2, .L55+4
 589 0024 A11E     		subs	r1, r4, #2
 590 0026 0023     		movs	r3, #0
 591              	.LVL24:
 592              	.L45:
 593              		.loc 1 78 0 discriminator 3
 594 0028 31F8020F 		ldrh	r0, [r1, #2]!
 595 002c 42F8040B 		str	r0, [r2], #4
 596              		.loc 1 77 0 discriminator 3
 597 0030 3069     		ldr	r0, [r6, #16]
 598 0032 4088     		ldrh	r0, [r0, #2]
 599 0034 0133     		adds	r3, r3, #1
 600              	.LVL25:
 601 0036 9842     		cmp	r0, r3
 602 0038 F6D8     		bhi	.L45
 603              	.LVL26:
 604              	.L44:
 605              	.LBE61:
 606              	.LBB62:
 607              	.LBB63:
 608              	.LBB64:
 609              	.LBB65:
 610              	.LBB66:
 611              	.LBB67:
 612              		.file 4 "../../lib/e-puck2_main-processor/ChibiOS//os/ext/CMSIS/include/core_cmFunc.h"
 613              		.loc 4 546 0
 614 003a 2023     		movs	r3, #32
 615              		.syntax unified
 616              	@ 546 "../../lib/e-puck2_main-processor/ChibiOS//os/ext/CMSIS/include/core_cmFunc.h" 1
 617 003c 83F31188 		MSR basepri, r3
 618              	@ 0 "" 2
 619              	.LVL27:
 620              		.thumb
 621              		.syntax unified
 622              	.LBE67:
 623              	.LBE66:
 624              	.LBE65:
 625              	.LBE64:
 626              		.file 5 "../../lib/e-puck2_main-processor/ChibiOS//os/rt/include/chsys.h"
 627              		.loc 5 389 0
ARM GAS  /var/folders/0b/rh7d8qts4ys3rdpl8xd_0jkm0000gn/T//cczAkeGu.s 			page 12


 628 0040 FFF7FEFF 		bl	_stats_start_measure_crit_isr
 629              	.LVL28:
 630              		.loc 5 390 0
 631 0044 FFF7FEFF 		bl	_dbg_check_lock_from_isr
 632              	.LVL29:
 633              	.LBE63:
 634              	.LBE62:
 635              	.LBB68:
 636              	.LBB69:
 637              		.loc 3 268 0
 638 0048 FFF7FEFF 		bl	chDbgCheckClassI
 639              	.LVL30:
 640              		.loc 3 270 0
 641 004c 0E48     		ldr	r0, .L55+8
 642 004e 8368     		ldr	r3, [r0, #8]
 643 0050 002B     		cmp	r3, #0
 644 0052 0FDD     		ble	.L53
 645              	.L46:
 646              	.LVL31:
 647              	.LBE69:
 648              	.LBE68:
 649              	.LBB71:
 650              	.LBB72:
 651              		.loc 5 408 0
 652 0054 FFF7FEFF 		bl	_dbg_check_unlock_from_isr
 653              	.LVL32:
 654              		.loc 5 409 0
 655 0058 FFF7FEFF 		bl	_stats_stop_measure_crit_isr
 656              	.LVL33:
 657              	.LBB73:
 658              	.LBB74:
 659              	.LBB75:
 660              	.LBB76:
 661              		.loc 4 546 0
 662 005c 0023     		movs	r3, #0
 663              		.syntax unified
 664              	@ 546 "../../lib/e-puck2_main-processor/ChibiOS//os/ext/CMSIS/include/core_cmFunc.h" 1
 665 005e 83F31188 		MSR basepri, r3
 666              	@ 0 "" 2
 667              	.LVL34:
 668              		.thumb
 669              		.syntax unified
 670              	.LBE76:
 671              	.LBE75:
 672              	.LBE74:
 673              	.LBE73:
 674              	.LBE72:
 675              	.LBE71:
 676              		.loc 1 87 0
 677 0062 019A     		ldr	r2, [sp, #4]
 678 0064 2B68     		ldr	r3, [r5]
 679              		.loc 1 86 0
 680 0066 0949     		ldr	r1, .L55+12
 681 0068 0120     		movs	r0, #1
 682              		.loc 1 87 0
 683 006a 9A42     		cmp	r2, r3
 684              		.loc 1 86 0
ARM GAS  /var/folders/0b/rh7d8qts4ys3rdpl8xd_0jkm0000gn/T//cczAkeGu.s 			page 13


 685 006c 0870     		strb	r0, [r1]
 686              		.loc 1 87 0
 687 006e 04D1     		bne	.L54
 688 0070 02B0     		add	sp, sp, #8
 689              		.cfi_remember_state
 690              		.cfi_def_cfa_offset 16
 691              		@ sp needed
 692 0072 70BD     		pop	{r4, r5, r6, pc}
 693              	.LVL35:
 694              	.L53:
 695              		.cfi_restore_state
 696              	.LBB77:
 697              	.LBB70:
 698              		.loc 3 271 0
 699 0074 FFF7FEFF 		bl	chSemSignalI
 700              	.LVL36:
 701 0078 ECE7     		b	.L46
 702              	.LVL37:
 703              	.L54:
 704              	.LBE70:
 705              	.LBE77:
 706              		.loc 1 87 0
 707 007a FFF7FEFF 		bl	__stack_chk_fail
 708              	.LVL38:
 709              	.L56:
 710 007e 00BF     		.align	2
 711              	.L55:
 712 0080 00000000 		.word	__stack_chk_guard
 713 0084 00000000 		.word	.LANCHOR4
 714 0088 00000000 		.word	.LANCHOR3
 715 008c 00000000 		.word	.LANCHOR0
 716              		.cfi_endproc
 717              	.LFE259:
 718              		.size	adc_cb, .-adc_cb
 719              		.section	.text.proximity_start,"ax",%progbits
 720              		.align	1
 721              		.p2align 4,,15
 722              		.global	proximity_start
 723              		.syntax unified
 724              		.thumb
 725              		.thumb_func
 726              		.fpu fpv4-sp-d16
 727              		.type	proximity_start, %function
 728              	proximity_start:
 729              	.LFB263:
 730              		.loc 1 291 0
 731              		.cfi_startproc
 732              		@ args = 0, pretend = 0, frame = 8
 733              		@ frame_needed = 0, uses_anonymous_args = 0
 734 0000 70B5     		push	{r4, r5, r6, lr}
 735              		.cfi_def_cfa_offset 16
 736              		.cfi_offset 4, -16
 737              		.cfi_offset 5, -12
 738              		.cfi_offset 6, -8
 739              		.cfi_offset 14, -4
 740              		.loc 1 292 0
 741 0002 1F4D     		ldr	r5, .L63
ARM GAS  /var/folders/0b/rh7d8qts4ys3rdpl8xd_0jkm0000gn/T//cczAkeGu.s 			page 14


 742              		.loc 1 291 0
 743 0004 1F4C     		ldr	r4, .L63+4
 744              		.loc 1 292 0
 745 0006 2E78     		ldrb	r6, [r5]	@ zero_extendqisi2
 746              		.loc 1 291 0
 747 0008 2368     		ldr	r3, [r4]
 748 000a 84B0     		sub	sp, sp, #16
 749              		.cfi_def_cfa_offset 32
 750              		.loc 1 292 0
 751 000c 012E     		cmp	r6, #1
 752              		.loc 1 291 0
 753 000e 0393     		str	r3, [sp, #12]
 754              		.loc 1 292 0
 755 0010 05D0     		beq	.L61
 756              	.L57:
 757              		.loc 1 329 0
 758 0012 039A     		ldr	r2, [sp, #12]
 759 0014 2368     		ldr	r3, [r4]
 760 0016 9A42     		cmp	r2, r3
 761 0018 2FD1     		bne	.L62
 762 001a 04B0     		add	sp, sp, #16
 763              		.cfi_remember_state
 764              		.cfi_def_cfa_offset 16
 765              		@ sp needed
 766 001c 70BD     		pop	{r4, r5, r6, pc}
 767              	.L61:
 768              		.cfi_restore_state
 769              		.loc 1 314 0
 770 001e 0021     		movs	r1, #0
 771 0020 2846     		mov	r0, r5
 772 0022 FFF7FEFF 		bl	adcStart
 773              	.LVL39:
 774              		.loc 1 315 0
 775 0026 2846     		mov	r0, r5
 776 0028 FFF7FEFF 		bl	adcAcquireBus
 777              	.LVL40:
 778              		.loc 1 317 0
 779 002c 3346     		mov	r3, r6
 780 002e 2846     		mov	r0, r5
 781 0030 154A     		ldr	r2, .L63+8
 782 0032 1649     		ldr	r1, .L63+12
 783 0034 FFF7FEFF 		bl	adcStartConversion
 784              	.LVL41:
 785              		.loc 1 320 0
 786 0038 1549     		ldr	r1, .L63+16
 787 003a 1648     		ldr	r0, .L63+20
 788 003c FFF7FEFF 		bl	pwmStart
 789              	.LVL42:
 790              		.loc 1 322 0
 791 0040 4FF49672 		mov	r2, #300
 792 0044 0021     		movs	r1, #0
 793 0046 1348     		ldr	r0, .L63+20
 794 0048 FFF7FEFF 		bl	pwmEnableChannel
 795              	.LVL43:
 796              		.loc 1 323 0
 797 004c 0021     		movs	r1, #0
 798 004e 1148     		ldr	r0, .L63+20
ARM GAS  /var/folders/0b/rh7d8qts4ys3rdpl8xd_0jkm0000gn/T//cczAkeGu.s 			page 15


 799 0050 FFF7FEFF 		bl	pwmEnableChannelNotification
 800              	.LVL44:
 801              		.loc 1 324 0
 802 0054 0F48     		ldr	r0, .L63+20
 803 0056 FFF7FEFF 		bl	pwmEnablePeriodicNotification
 804              	.LVL45:
 805              		.loc 1 325 0
 806 005a 3146     		mov	r1, r6
 807 005c 4FF48272 		mov	r2, #260
 808 0060 0C48     		ldr	r0, .L63+20
 809 0062 FFF7FEFF 		bl	pwmEnableChannel
 810              	.LVL46:
 811              		.loc 1 327 0
 812 0066 0023     		movs	r3, #0
 813 0068 0093     		str	r3, [sp]
 814 006a 4022     		movs	r2, #64
 815 006c 0A4B     		ldr	r3, .L63+24
 816 006e 0B48     		ldr	r0, .L63+28
 817 0070 4FF41E71 		mov	r1, #632
 818 0074 FFF7FEFF 		bl	chThdCreateStatic
 819              	.LVL47:
 820 0078 CBE7     		b	.L57
 821              	.L62:
 822              		.loc 1 329 0
 823 007a FFF7FEFF 		bl	__stack_chk_fail
 824              	.LVL48:
 825              	.L64:
 826 007e 00BF     		.align	2
 827              	.L63:
 828 0080 00000000 		.word	ADCD2
 829 0084 00000000 		.word	__stack_chk_guard
 830 0088 00000000 		.word	.LANCHOR9
 831 008c 00000000 		.word	.LANCHOR10
 832 0090 00000000 		.word	.LANCHOR11
 833 0094 00000000 		.word	PWMD2
 834 0098 00000000 		.word	proximity_thd
 835 009c 00000000 		.word	.LANCHOR12
 836              		.cfi_endproc
 837              	.LFE263:
 838              		.size	proximity_start, .-proximity_start
 839              		.section	.text.calibrate_ir,"ax",%progbits
 840              		.align	1
 841              		.p2align 4,,15
 842              		.global	calibrate_ir
 843              		.syntax unified
 844              		.thumb
 845              		.thumb_func
 846              		.fpu fpv4-sp-d16
 847              		.type	calibrate_ir, %function
 848              	calibrate_ir:
 849              	.LFB264:
 850              		.loc 1 331 0
 851              		.cfi_startproc
 852              		@ args = 0, pretend = 0, frame = 8
 853              		@ frame_needed = 0, uses_anonymous_args = 0
 854 0000 30B5     		push	{r4, r5, lr}
 855              		.cfi_def_cfa_offset 12
ARM GAS  /var/folders/0b/rh7d8qts4ys3rdpl8xd_0jkm0000gn/T//cczAkeGu.s 			page 16


 856              		.cfi_offset 4, -12
 857              		.cfi_offset 5, -8
 858              		.cfi_offset 14, -4
 859 0002 0C4D     		ldr	r5, .L71
 860              		.loc 1 332 0
 861 0004 0C4A     		ldr	r2, .L71+4
 862              		.loc 1 331 0
 863 0006 2B68     		ldr	r3, [r5]
 864              		.loc 1 333 0
 865 0008 0C4C     		ldr	r4, .L71+8
 866              		.loc 1 331 0
 867 000a 83B0     		sub	sp, sp, #12
 868              		.cfi_def_cfa_offset 24
 869              		.loc 1 332 0
 870 000c 0021     		movs	r1, #0
 871              		.loc 1 331 0
 872 000e 0193     		str	r3, [sp, #4]
 873              		.loc 1 333 0
 874 0010 0123     		movs	r3, #1
 875              		.loc 1 332 0
 876 0012 1170     		strb	r1, [r2]
 877              		.loc 1 333 0
 878 0014 2370     		strb	r3, [r4]
 879              	.L66:
 880              		.loc 1 335 0
 881 0016 1420     		movs	r0, #20
 882 0018 FFF7FEFF 		bl	chThdSleep
 883              	.LVL49:
 884              		.loc 1 334 0
 885 001c 2378     		ldrb	r3, [r4]	@ zero_extendqisi2
 886 001e 002B     		cmp	r3, #0
 887 0020 F9D1     		bne	.L66
 888              		.loc 1 337 0
 889 0022 019A     		ldr	r2, [sp, #4]
 890 0024 2B68     		ldr	r3, [r5]
 891 0026 9A42     		cmp	r2, r3
 892 0028 01D1     		bne	.L70
 893 002a 03B0     		add	sp, sp, #12
 894              		.cfi_remember_state
 895              		.cfi_def_cfa_offset 12
 896              		@ sp needed
 897 002c 30BD     		pop	{r4, r5, pc}
 898              	.L70:
 899              		.cfi_restore_state
 900 002e FFF7FEFF 		bl	__stack_chk_fail
 901              	.LVL50:
 902              	.L72:
 903 0032 00BF     		.align	2
 904              	.L71:
 905 0034 00000000 		.word	__stack_chk_guard
 906 0038 00000000 		.word	.LANCHOR6
 907 003c 00000000 		.word	.LANCHOR5
 908              		.cfi_endproc
 909              	.LFE264:
 910              		.size	calibrate_ir, .-calibrate_ir
 911              		.section	.text.get_prox,"ax",%progbits
 912              		.align	1
ARM GAS  /var/folders/0b/rh7d8qts4ys3rdpl8xd_0jkm0000gn/T//cczAkeGu.s 			page 17


 913              		.p2align 4,,15
 914              		.global	get_prox
 915              		.syntax unified
 916              		.thumb
 917              		.thumb_func
 918              		.fpu fpv4-sp-d16
 919              		.type	get_prox, %function
 920              	get_prox:
 921              	.LFB265:
 922              		.loc 1 339 0
 923              		.cfi_startproc
 924              		@ args = 0, pretend = 0, frame = 8
 925              		@ frame_needed = 0, uses_anonymous_args = 0
 926              	.LVL51:
 927 0000 00B5     		push	{lr}
 928              		.cfi_def_cfa_offset 4
 929              		.cfi_offset 14, -4
 930 0002 0A4B     		ldr	r3, .L79
 931 0004 83B0     		sub	sp, sp, #12
 932              		.cfi_def_cfa_offset 16
 933              		.loc 1 339 0
 934 0006 1A68     		ldr	r2, [r3]
 935 0008 0192     		str	r2, [sp, #4]
 936              		.loc 1 340 0
 937 000a 0728     		cmp	r0, #7
 938              		.loc 1 343 0
 939 000c 9BBF     		ittet	ls
 940 000e 084A     		ldrls	r2, .L79+4
 941 0010 1030     		addls	r0, r0, #16
 942              	.LVL52:
 943              		.loc 1 341 0
 944 0012 0020     		movhi	r0, #0
 945              		.loc 1 343 0
 946 0014 52F82000 		ldrls	r0, [r2, r0, lsl #2]
 947              		.loc 1 345 0
 948 0018 019A     		ldr	r2, [sp, #4]
 949 001a 1B68     		ldr	r3, [r3]
 950 001c 9A42     		cmp	r2, r3
 951 001e 02D1     		bne	.L78
 952 0020 03B0     		add	sp, sp, #12
 953              		.cfi_remember_state
 954              		.cfi_def_cfa_offset 4
 955              		@ sp needed
 956 0022 5DF804FB 		ldr	pc, [sp], #4
 957              	.L78:
 958              		.cfi_restore_state
 959 0026 FFF7FEFF 		bl	__stack_chk_fail
 960              	.LVL53:
 961              	.L80:
 962 002a 00BF     		.align	2
 963              	.L79:
 964 002c 00000000 		.word	__stack_chk_guard
 965 0030 00000000 		.word	.LANCHOR2
 966              		.cfi_endproc
 967              	.LFE265:
 968              		.size	get_prox, .-get_prox
 969              		.section	.text.get_calibrated_prox,"ax",%progbits
ARM GAS  /var/folders/0b/rh7d8qts4ys3rdpl8xd_0jkm0000gn/T//cczAkeGu.s 			page 18


 970              		.align	1
 971              		.p2align 4,,15
 972              		.global	get_calibrated_prox
 973              		.syntax unified
 974              		.thumb
 975              		.thumb_func
 976              		.fpu fpv4-sp-d16
 977              		.type	get_calibrated_prox, %function
 978              	get_calibrated_prox:
 979              	.LFB266:
 980              		.loc 1 347 0
 981              		.cfi_startproc
 982              		@ args = 0, pretend = 0, frame = 8
 983              		@ frame_needed = 0, uses_anonymous_args = 0
 984              	.LVL54:
 985 0000 10B5     		push	{r4, lr}
 986              		.cfi_def_cfa_offset 8
 987              		.cfi_offset 4, -8
 988              		.cfi_offset 14, -4
 989 0002 0E4A     		ldr	r2, .L87
 990 0004 82B0     		sub	sp, sp, #8
 991              		.cfi_def_cfa_offset 16
 992              		.loc 1 347 0
 993 0006 1368     		ldr	r3, [r2]
 994 0008 0193     		str	r3, [sp, #4]
 995              		.loc 1 349 0
 996 000a 0728     		cmp	r0, #7
 997 000c 11D8     		bhi	.L84
 998              	.LVL55:
 999              		.loc 1 352 0
 1000 000e 0C49     		ldr	r1, .L87+4
 1001 0010 00F11803 		add	r3, r0, #24
 1002              	.LVL56:
 1003 0014 00F11004 		add	r4, r0, #16
 1004              	.LVL57:
 1005 0018 51F82330 		ldr	r3, [r1, r3, lsl #2]
 1006              	.LVL58:
 1007 001c 51F82400 		ldr	r0, [r1, r4, lsl #2]
 1008              	.LVL59:
 1009 0020 C01A     		subs	r0, r0, r3
 1010 0022 20EAE070 		bic	r0, r0, r0, asr #31
 1011              	.LVL60:
 1012              	.L81:
 1013              		.loc 1 359 0
 1014 0026 0199     		ldr	r1, [sp, #4]
 1015 0028 1368     		ldr	r3, [r2]
 1016 002a 9942     		cmp	r1, r3
 1017 002c 03D1     		bne	.L86
 1018 002e 02B0     		add	sp, sp, #8
 1019              		.cfi_remember_state
 1020              		.cfi_def_cfa_offset 8
 1021              		@ sp needed
 1022 0030 10BD     		pop	{r4, pc}
 1023              	.LVL61:
 1024              	.L84:
 1025              		.cfi_restore_state
 1026              		.loc 1 350 0
ARM GAS  /var/folders/0b/rh7d8qts4ys3rdpl8xd_0jkm0000gn/T//cczAkeGu.s 			page 19


 1027 0032 0020     		movs	r0, #0
 1028              	.LVL62:
 1029 0034 F7E7     		b	.L81
 1030              	.L86:
 1031              		.loc 1 359 0
 1032 0036 FFF7FEFF 		bl	__stack_chk_fail
 1033              	.LVL63:
 1034              	.L88:
 1035 003a 00BF     		.align	2
 1036              	.L87:
 1037 003c 00000000 		.word	__stack_chk_guard
 1038 0040 00000000 		.word	.LANCHOR2
 1039              		.cfi_endproc
 1040              	.LFE266:
 1041              		.size	get_calibrated_prox, .-get_calibrated_prox
 1042              		.section	.text.get_ambient_light,"ax",%progbits
 1043              		.align	1
 1044              		.p2align 4,,15
 1045              		.global	get_ambient_light
 1046              		.syntax unified
 1047              		.thumb
 1048              		.thumb_func
 1049              		.fpu fpv4-sp-d16
 1050              		.type	get_ambient_light, %function
 1051              	get_ambient_light:
 1052              	.LFB267:
 1053              		.loc 1 361 0
 1054              		.cfi_startproc
 1055              		@ args = 0, pretend = 0, frame = 8
 1056              		@ frame_needed = 0, uses_anonymous_args = 0
 1057              	.LVL64:
 1058 0000 00B5     		push	{lr}
 1059              		.cfi_def_cfa_offset 4
 1060              		.cfi_offset 14, -4
 1061 0002 0A4B     		ldr	r3, .L95
 1062 0004 83B0     		sub	sp, sp, #12
 1063              		.cfi_def_cfa_offset 16
 1064              		.loc 1 361 0
 1065 0006 1A68     		ldr	r2, [r3]
 1066 0008 0192     		str	r2, [sp, #4]
 1067              		.loc 1 362 0
 1068 000a 0728     		cmp	r0, #7
 1069              		.loc 1 365 0
 1070 000c 9CBF     		itt	ls
 1071 000e 084A     		ldrls	r2, .L95+4
 1072 0010 52F82000 		ldrls	r0, [r2, r0, lsl #2]
 1073              	.LVL65:
 1074              		.loc 1 367 0
 1075 0014 019A     		ldr	r2, [sp, #4]
 1076 0016 1B68     		ldr	r3, [r3]
 1077              		.loc 1 363 0
 1078 0018 88BF     		it	hi
 1079 001a 0020     		movhi	r0, #0
 1080              		.loc 1 367 0
 1081 001c 9A42     		cmp	r2, r3
 1082 001e 02D1     		bne	.L94
 1083 0020 03B0     		add	sp, sp, #12
ARM GAS  /var/folders/0b/rh7d8qts4ys3rdpl8xd_0jkm0000gn/T//cczAkeGu.s 			page 20


 1084              		.cfi_remember_state
 1085              		.cfi_def_cfa_offset 4
 1086              		@ sp needed
 1087 0022 5DF804FB 		ldr	pc, [sp], #4
 1088              	.L94:
 1089              		.cfi_restore_state
 1090 0026 FFF7FEFF 		bl	__stack_chk_fail
 1091              	.LVL66:
 1092              	.L96:
 1093 002a 00BF     		.align	2
 1094              	.L95:
 1095 002c 00000000 		.word	__stack_chk_guard
 1096 0030 00000000 		.word	.LANCHOR2
 1097              		.cfi_endproc
 1098              	.LFE267:
 1099              		.size	get_ambient_light, .-get_ambient_light
 1100              		.section	.text.get_reflected,"ax",%progbits
 1101              		.align	1
 1102              		.p2align 4,,15
 1103              		.global	get_reflected
 1104              		.syntax unified
 1105              		.thumb
 1106              		.thumb_func
 1107              		.fpu fpv4-sp-d16
 1108              		.type	get_reflected, %function
 1109              	get_reflected:
 1110              	.LFB268:
 1111              		.loc 1 369 0
 1112              		.cfi_startproc
 1113              		@ args = 0, pretend = 0, frame = 8
 1114              		@ frame_needed = 0, uses_anonymous_args = 0
 1115              	.LVL67:
 1116 0000 00B5     		push	{lr}
 1117              		.cfi_def_cfa_offset 4
 1118              		.cfi_offset 14, -4
 1119 0002 0A4B     		ldr	r3, .L103
 1120 0004 83B0     		sub	sp, sp, #12
 1121              		.cfi_def_cfa_offset 16
 1122              		.loc 1 369 0
 1123 0006 1A68     		ldr	r2, [r3]
 1124 0008 0192     		str	r2, [sp, #4]
 1125              		.loc 1 370 0
 1126 000a 0728     		cmp	r0, #7
 1127              		.loc 1 373 0
 1128 000c 9BBF     		ittet	ls
 1129 000e 084A     		ldrls	r2, .L103+4
 1130 0010 0830     		addls	r0, r0, #8
 1131              	.LVL68:
 1132              		.loc 1 371 0
 1133 0012 0020     		movhi	r0, #0
 1134              		.loc 1 373 0
 1135 0014 52F82000 		ldrls	r0, [r2, r0, lsl #2]
 1136              		.loc 1 375 0
 1137 0018 019A     		ldr	r2, [sp, #4]
 1138 001a 1B68     		ldr	r3, [r3]
 1139 001c 9A42     		cmp	r2, r3
 1140 001e 02D1     		bne	.L102
ARM GAS  /var/folders/0b/rh7d8qts4ys3rdpl8xd_0jkm0000gn/T//cczAkeGu.s 			page 21


 1141 0020 03B0     		add	sp, sp, #12
 1142              		.cfi_remember_state
 1143              		.cfi_def_cfa_offset 4
 1144              		@ sp needed
 1145 0022 5DF804FB 		ldr	pc, [sp], #4
 1146              	.L102:
 1147              		.cfi_restore_state
 1148 0026 FFF7FEFF 		bl	__stack_chk_fail
 1149              	.LVL69:
 1150              	.L104:
 1151 002a 00BF     		.align	2
 1152              	.L103:
 1153 002c 00000000 		.word	__stack_chk_guard
 1154 0030 00000000 		.word	.LANCHOR2
 1155              		.cfi_endproc
 1156              	.LFE268:
 1157              		.size	get_reflected, .-get_reflected
 1158              		.section	.bss.adc2_proximity_samples,"aw",%nobits
 1159              		.align	2
 1160              		.set	.LANCHOR9,. + 0
 1161              		.type	adc2_proximity_samples, %object
 1162              		.size	adc2_proximity_samples, 32
 1163              	adc2_proximity_samples:
 1164 0000 00000000 		.space	32
 1164      00000000 
 1164      00000000 
 1164      00000000 
 1164      00000000 
 1165              		.section	.bss.adc2_values,"aw",%nobits
 1166              		.align	2
 1167              		.set	.LANCHOR4,. + 0
 1168              		.type	adc2_values, %object
 1169              		.size	adc2_values, 64
 1170              	adc2_values:
 1171 0000 00000000 		.space	64
 1171      00000000 
 1171      00000000 
 1171      00000000 
 1171      00000000 
 1172              		.section	.bss.calibrationInProgress,"aw",%nobits
 1173              		.set	.LANCHOR5,. + 0
 1174              		.type	calibrationInProgress, %object
 1175              		.size	calibrationInProgress, 1
 1176              	calibrationInProgress:
 1177 0000 00       		.space	1
 1178              		.section	.bss.calibrationNumSamples,"aw",%nobits
 1179              		.set	.LANCHOR8,. + 0
 1180              		.type	calibrationNumSamples, %object
 1181              		.size	calibrationNumSamples, 1
 1182              	calibrationNumSamples:
 1183 0000 00       		.space	1
 1184              		.section	.bss.calibrationState,"aw",%nobits
 1185              		.set	.LANCHOR6,. + 0
 1186              		.type	calibrationState, %object
 1187              		.size	calibrationState, 1
 1188              	calibrationState:
 1189 0000 00       		.space	1
ARM GAS  /var/folders/0b/rh7d8qts4ys3rdpl8xd_0jkm0000gn/T//cczAkeGu.s 			page 22


 1190              		.section	.bss.calibrationSum,"aw",%nobits
 1191              		.align	2
 1192              		.set	.LANCHOR7,. + 0
 1193              		.type	calibrationSum, %object
 1194              		.size	calibrationSum, 32
 1195              	calibrationSum:
 1196 0000 00000000 		.space	32
 1196      00000000 
 1196      00000000 
 1196      00000000 
 1196      00000000 
 1197              		.section	.bss.prox_values,"aw",%nobits
 1198              		.align	2
 1199              		.set	.LANCHOR2,. + 0
 1200              		.type	prox_values, %object
 1201              		.size	prox_values, 128
 1202              	prox_values:
 1203 0000 00000000 		.space	128
 1203      00000000 
 1203      00000000 
 1203      00000000 
 1203      00000000 
 1204              		.section	.bss.proximity_thd_wa,"aw",%nobits
 1205              		.align	3
 1206              		.set	.LANCHOR12,. + 0
 1207              		.type	proximity_thd_wa, %object
 1208              		.size	proximity_thd_wa, 632
 1209              	proximity_thd_wa:
 1210 0000 00000000 		.space	632
 1210      00000000 
 1210      00000000 
 1210      00000000 
 1210      00000000 
 1211              		.section	.bss.pulseSeqState,"aw",%nobits
 1212              		.set	.LANCHOR0,. + 0
 1213              		.type	pulseSeqState, %object
 1214              		.size	pulseSeqState, 1
 1215              	pulseSeqState:
 1216 0000 00       		.space	1
 1217              		.section	.data.adc2_ready,"aw",%progbits
 1218              		.align	2
 1219              		.set	.LANCHOR3,. + 0
 1220              		.type	adc2_ready, %object
 1221              		.size	adc2_ready, 12
 1222              	adc2_ready:
 1223 0000 00000000 		.word	adc2_ready
 1224 0004 00000000 		.word	adc2_ready
 1225 0008 00000000 		.word	0
 1226              		.section	.rodata.__FUNCTION__.12274,"a",%progbits
 1227              		.align	2
 1228              		.set	.LANCHOR1,. + 0
 1229              		.type	__FUNCTION__.12274, %object
 1230              		.size	__FUNCTION__.12274, 14
 1231              	__FUNCTION__.12274:
 1232 0000 70726F78 		.ascii	"proximity_thd\000"
 1232      696D6974 
 1232      795F7468 
ARM GAS  /var/folders/0b/rh7d8qts4ys3rdpl8xd_0jkm0000gn/T//cczAkeGu.s 			page 23


 1232      6400
 1233              		.section	.rodata.adcgrpcfg2,"a",%progbits
 1234              		.align	2
 1235              		.set	.LANCHOR10,. + 0
 1236              		.type	adcgrpcfg2, %object
 1237              		.size	adcgrpcfg2, 40
 1238              	adcgrpcfg2:
 1239 0000 01       		.byte	1
 1240 0001 00       		.space	1
 1241 0002 1000     		.short	16
 1242 0004 00000000 		.word	adc_cb
 1243 0008 00000000 		.word	0
 1244 000c 00280000 		.word	10240
 1245 0010 00000023 		.word	587202560
 1246 0014 6DDB0200 		.word	187245
 1247 0018 6DDBB62D 		.word	766958445
 1248 001c 6FBDF500 		.word	16104815
 1249 0020 0D39E514 		.word	350566669
 1250 0024 2CB1D410 		.word	282374444
 1251              		.section	.rodata.proximity_thd.str1.4,"aMS",%progbits,1
 1252              		.align	2
 1253              	.LC0:
 1254 0000 2F70726F 		.ascii	"/proximity\000"
 1254      78696D69 
 1254      747900
 1255              		.section	.rodata.pwmcfg_proximity.12313,"a",%progbits
 1256              		.align	2
 1257              		.set	.LANCHOR11,. + 0
 1258              		.type	pwmcfg_proximity.12313, %object
 1259              		.size	pwmcfg_proximity.12313, 52
 1260              	pwmcfg_proximity.12313:
 1261 0000 40420F00 		.word	1000000
 1262 0004 E2040000 		.word	1250
 1263 0008 00000000 		.word	pwm_reset_cb
 1264 000c 01000000 		.word	1
 1265 0010 00000000 		.word	pwm_ch1_cb
 1266 0014 01000000 		.word	1
 1267 0018 00000000 		.word	0
 1268 001c 00000000 		.word	0
 1269 0020 00000000 		.word	0
 1270 0024 00000000 		.word	0
 1271 0028 00000000 		.word	0
 1272 002c 00000000 		.word	0
 1273 0030 00000000 		.space	4
 1274              		.text
 1275              	.Letext0:
 1276              		.file 6 "/Applications/Eclipse_e-puck2.app/Contents/Eclipse_e-puck2/Tools/gcc-arm-none-eabi-7-2017
 1277              		.file 7 "/Applications/Eclipse_e-puck2.app/Contents/Eclipse_e-puck2/Tools/gcc-arm-none-eabi-7-2017
 1278              		.file 8 "/Applications/Eclipse_e-puck2.app/Contents/Eclipse_e-puck2/Tools/gcc-arm-none-eabi-7-2017
 1279              		.file 9 "/Applications/Eclipse_e-puck2.app/Contents/Eclipse_e-puck2/Tools/gcc-arm-none-eabi-7-2017
 1280              		.file 10 "/Applications/Eclipse_e-puck2.app/Contents/Eclipse_e-puck2/Tools/gcc-arm-none-eabi-7-201
 1281              		.file 11 "/Applications/Eclipse_e-puck2.app/Contents/Eclipse_e-puck2/Tools/gcc-arm-none-eabi-7-201
 1282              		.file 12 "../../lib/e-puck2_main-processor/ChibiOS//os/rt/ports/ARMCMx/compilers/GCC/chtypes.h"
 1283              		.file 13 "../../lib/e-puck2_main-processor/ChibiOS//os/rt/include/chsystypes.h"
 1284              		.file 14 "../../lib/e-puck2_main-processor/ChibiOS//os/rt/include/chschd.h"
 1285              		.file 15 "../../lib/e-puck2_main-processor/ChibiOS//os/ext/CMSIS/include/core_cm4.h"
 1286              		.file 16 "../../lib/e-puck2_main-processor/ChibiOS//os/ext/CMSIS/ST/system_stm32f4xx.h"
ARM GAS  /var/folders/0b/rh7d8qts4ys3rdpl8xd_0jkm0000gn/T//cczAkeGu.s 			page 24


 1287              		.file 17 "../../lib/e-puck2_main-processor/ChibiOS//os/ext/CMSIS/ST/stm32f407xx.h"
 1288              		.file 18 "../../lib/e-puck2_main-processor/ChibiOS//os/rt/ports/ARMCMx/chcore.h"
 1289              		.file 19 "../../lib/e-puck2_main-processor/ChibiOS//os/rt/ports/ARMCMx/chcore_v7m.h"
 1290              		.file 20 "../../lib/e-puck2_main-processor/ChibiOS//os/rt/include/chdebug.h"
 1291              		.file 21 "../../lib/e-puck2_main-processor/ChibiOS//os/rt/include/chtm.h"
 1292              		.file 22 "../../lib/e-puck2_main-processor/ChibiOS//os/rt/include/chstats.h"
 1293              		.file 23 "../../lib/e-puck2_main-processor/ChibiOS//os/rt/include/chsem.h"
 1294              		.file 24 "../../lib/e-puck2_main-processor/ChibiOS//os/rt/include/chmtx.h"
 1295              		.file 25 "../../lib/e-puck2_main-processor/ChibiOS//os/rt/include/chcond.h"
 1296              		.file 26 "../../lib/e-puck2_main-processor/ChibiOS//os/rt/include/chevents.h"
 1297              		.file 27 "../../lib/e-puck2_main-processor/ChibiOS//os/rt/include/chqueues.h"
 1298              		.file 28 "../../lib/e-puck2_main-processor/ChibiOS//os/hal/ports/STM32/STM32F4xx/stm32_dma.h"
 1299              		.file 29 "../../lib/e-puck2_main-processor/ChibiOS//os/hal/include/hal_ioblock.h"
 1300              		.file 30 "../../lib/e-puck2_main-processor/ChibiOS//os/hal/ports/STM32/LLD/GPIOv2/pal_lld.h"
 1301              		.file 31 "../../lib/e-puck2_main-processor/ChibiOS//os/hal/include/adc.h"
 1302              		.file 32 "../../lib/e-puck2_main-processor/ChibiOS//os/hal/ports/STM32/STM32F4xx/adc_lld.h"
 1303              		.file 33 "../../lib/e-puck2_main-processor/ChibiOS//os/hal/include/can.h"
 1304              		.file 34 "../../lib/e-puck2_main-processor/ChibiOS//os/hal/ports/STM32/LLD/can_lld.h"
 1305              		.file 35 "../../lib/e-puck2_main-processor/ChibiOS//os/hal/include/dac.h"
 1306              		.file 36 "../../lib/e-puck2_main-processor/ChibiOS//os/hal/ports/STM32/LLD/DACv1/dac_lld.h"
 1307              		.file 37 "../../lib/e-puck2_main-processor/ChibiOS//os/hal/include/ext.h"
 1308              		.file 38 "../../lib/e-puck2_main-processor/ChibiOS//os/hal/ports/STM32/LLD/ext_lld.h"
 1309              		.file 39 "../../lib/e-puck2_main-processor/ChibiOS//os/hal/include/gpt.h"
 1310              		.file 40 "../../lib/e-puck2_main-processor/ChibiOS//os/hal/ports/STM32/LLD/TIMv1/gpt_lld.h"
 1311              		.file 41 "../../lib/e-puck2_main-processor/ChibiOS//os/hal/ports/STM32/LLD/TIMv1/stm32_tim.h"
 1312              		.file 42 "../../lib/e-puck2_main-processor/ChibiOS//os/hal/include/i2c.h"
 1313              		.file 43 "../../lib/e-puck2_main-processor/ChibiOS//os/hal/ports/STM32/LLD/I2Cv1/i2c_lld.h"
 1314              		.file 44 "../../lib/e-puck2_main-processor/ChibiOS//os/hal/include/i2s.h"
 1315              		.file 45 "../../lib/e-puck2_main-processor/ChibiOS//os/hal/ports/STM32/LLD/SPIv1/i2s_lld.h"
 1316              		.file 46 "../../lib/e-puck2_main-processor/ChibiOS//os/hal/include/pwm.h"
 1317              		.file 47 "../../lib/e-puck2_main-processor/ChibiOS//os/hal/ports/STM32/LLD/TIMv1/pwm_lld.h"
 1318              		.file 48 "../../lib/e-puck2_main-processor/ChibiOS//os/hal/include/serial.h"
 1319              		.file 49 "../../lib/e-puck2_main-processor/ChibiOS//os/hal/ports/STM32/LLD/USARTv1/serial_lld.h"
 1320              		.file 50 "../../lib/e-puck2_main-processor/ChibiOS//os/hal/include/sdc.h"
 1321              		.file 51 "../../lib/e-puck2_main-processor/ChibiOS//os/hal/ports/STM32/LLD/sdc_lld.h"
 1322              		.file 52 "../../lib/e-puck2_main-processor/ChibiOS//os/hal/include/spi.h"
 1323              		.file 53 "../../lib/e-puck2_main-processor/ChibiOS//os/hal/ports/STM32/LLD/SPIv1/spi_lld.h"
 1324              		.file 54 "../../lib/e-puck2_main-processor/ChibiOS//os/hal/include/usb.h"
 1325              		.file 55 "../../lib/e-puck2_main-processor/ChibiOS//os/hal/ports/STM32/LLD/OTGv1/usb_lld.h"
 1326              		.file 56 "../../lib/e-puck2_main-processor/ChibiOS//os/hal/ports/STM32/LLD/OTGv1/stm32_otg.h"
 1327              		.file 57 "../../lib/e-puck2_main-processor/src/sensors/proximity.h"
 1328              		.file 58 "../../lib/e-puck2_main-processor/ChibiOS_ext/os/hal/include/../ports/STM32/STM32F4xx/dcm
 1329              		.file 59 "/Applications/Eclipse_e-puck2.app/Contents/Eclipse_e-puck2/Tools/gcc-arm-none-eabi-7-201
 1330              		.file 60 "../../lib/e-puck2_main-processor/src/msgbus/messagebus.h"
 1331              		.file 61 "/Applications/Eclipse_e-puck2.app/Contents/Eclipse_e-puck2/Tools/gcc-arm-none-eabi-7-201
 1332              		.file 62 "../../lib/e-puck2_main-processor/src/parameter/parameter.h"
 1333              		.file 63 "./main.h"
 1334              		.file 64 "../../lib/e-puck2_main-processor/ChibiOS//os/rt/include/chthreads.h"
 1335              		.file 65 "<built-in>"