ARM GAS  /var/folders/0b/rh7d8qts4ys3rdpl8xd_0jkm0000gn/T//ccb1YIfy.s 			page 1


   1              		.cpu cortex-m4
   2              		.eabi_attribute 27, 1
   3              		.eabi_attribute 28, 1
   4              		.eabi_attribute 20, 1
   5              		.eabi_attribute 21, 1
   6              		.eabi_attribute 23, 3
   7              		.eabi_attribute 24, 1
   8              		.eabi_attribute 25, 1
   9              		.eabi_attribute 26, 1
  10              		.eabi_attribute 30, 2
  11              		.eabi_attribute 34, 1
  12              		.eabi_attribute 18, 4
  13              		.file	"robotmvmts.c"
  14              		.text
  15              	.Ltext0:
  16              		.cfi_sections	.debug_frame
  17              		.section	.text.chprintf.constprop.0,"ax",%progbits
  18              		.align	1
  19              		.p2align 4,,15
  20              		.syntax unified
  21              		.thumb
  22              		.thumb_func
  23              		.fpu fpv4-sp-d16
  24              		.type	chprintf.constprop.0, %function
  25              	chprintf.constprop.0:
  26              	.LFB267:
  27              		.file 1 "../../lib/e-puck2_main-processor/ChibiOS//os/hal/lib/streams/chprintf.h"
  28              		.loc 1 69 0
  29              		.cfi_startproc
  30              		@ args = 4, pretend = 12, frame = 8
  31              		@ frame_needed = 0, uses_anonymous_args = 1
  32              	.LVL0:
  33 0000 0EB4     		push	{r1, r2, r3}
  34              		.cfi_def_cfa_offset 12
  35              		.cfi_offset 1, -12
  36              		.cfi_offset 2, -8
  37              		.cfi_offset 3, -4
  38 0002 10B5     		push	{r4, lr}
  39              		.cfi_def_cfa_offset 20
  40              		.cfi_offset 4, -20
  41              		.cfi_offset 14, -16
  42 0004 83B0     		sub	sp, sp, #12
  43              		.cfi_def_cfa_offset 32
  44              		.loc 1 69 0
  45 0006 05AA     		add	r2, sp, #20
  46 0008 094C     		ldr	r4, .L6
  47 000a 52F8041B 		ldr	r1, [r2], #4
  48 000e 2368     		ldr	r3, [r4]
  49              		.loc 1 74 0
  50 0010 0848     		ldr	r0, .L6+4
  51              	.LVL1:
  52              		.loc 1 73 0
  53 0012 0092     		str	r2, [sp]
  54              		.loc 1 69 0
  55 0014 0193     		str	r3, [sp, #4]
  56              	.LVL2:
  57              		.loc 1 74 0
ARM GAS  /var/folders/0b/rh7d8qts4ys3rdpl8xd_0jkm0000gn/T//ccb1YIfy.s 			page 2


  58 0016 FFF7FEFF 		bl	chvprintf
  59              	.LVL3:
  60              		.loc 1 78 0
  61 001a 019A     		ldr	r2, [sp, #4]
  62 001c 2368     		ldr	r3, [r4]
  63 001e 9A42     		cmp	r2, r3
  64 0020 04D1     		bne	.L5
  65 0022 03B0     		add	sp, sp, #12
  66              		.cfi_remember_state
  67              		.cfi_def_cfa_offset 20
  68              		@ sp needed
  69 0024 BDE81040 		pop	{r4, lr}
  70              		.cfi_restore 14
  71              		.cfi_restore 4
  72              		.cfi_def_cfa_offset 12
  73 0028 03B0     		add	sp, sp, #12
  74              		.cfi_restore 3
  75              		.cfi_restore 2
  76              		.cfi_restore 1
  77              		.cfi_def_cfa_offset 0
  78 002a 7047     		bx	lr
  79              	.L5:
  80              		.cfi_restore_state
  81 002c FFF7FEFF 		bl	__stack_chk_fail
  82              	.LVL4:
  83              	.L7:
  84              		.align	2
  85              	.L6:
  86 0030 00000000 		.word	__stack_chk_guard
  87 0034 00000000 		.word	SD3
  88              		.cfi_endproc
  89              	.LFE267:
  90              		.size	chprintf.constprop.0, .-chprintf.constprop.0
  91              		.section	.text.retrieve_TOF_measure,"ax",%progbits
  92              		.align	1
  93              		.p2align 4,,15
  94              		.global	retrieve_TOF_measure
  95              		.syntax unified
  96              		.thumb
  97              		.thumb_func
  98              		.fpu fpv4-sp-d16
  99              		.type	retrieve_TOF_measure, %function
 100              	retrieve_TOF_measure:
 101              	.LFB260:
 102              		.file 2 "robotmvmts.c"
 103              		.loc 2 25 0
 104              		.cfi_startproc
 105              		@ args = 0, pretend = 0, frame = 8
 106              		@ frame_needed = 0, uses_anonymous_args = 0
 107              	.LVL5:
 108 0000 F0B5     		push	{r4, r5, r6, r7, lr}
 109              		.cfi_def_cfa_offset 20
 110              		.cfi_offset 4, -20
 111              		.cfi_offset 5, -16
 112              		.cfi_offset 6, -12
 113              		.cfi_offset 7, -8
 114              		.cfi_offset 14, -4
ARM GAS  /var/folders/0b/rh7d8qts4ys3rdpl8xd_0jkm0000gn/T//ccb1YIfy.s 			page 3


 115 0002 0E4F     		ldr	r7, .L16
 116 0004 83B0     		sub	sp, sp, #12
 117              		.cfi_def_cfa_offset 32
 118              		.loc 2 25 0
 119 0006 3B68     		ldr	r3, [r7]
 120 0008 0193     		str	r3, [sp, #4]
 121              	.LVL6:
 122              	.LBB11:
 123              		.loc 2 27 0
 124 000a 0646     		mov	r6, r0
 125 000c 70B1     		cbz	r0, .L9
 126 000e 0025     		movs	r5, #0
 127              	.LBE11:
 128              		.loc 2 26 0
 129 0010 2C46     		mov	r4, r5
 130              	.LVL7:
 131              	.L10:
 132              	.LBB12:
 133              		.loc 2 28 0 discriminator 3
 134 0012 9620     		movs	r0, #150
 135 0014 FFF7FEFF 		bl	chThdSleep
 136              	.LVL8:
 137              		.loc 2 29 0 discriminator 3
 138 0018 FFF7FEFF 		bl	VL53L0X_get_dist_mm
 139              	.LVL9:
 140              		.loc 2 27 0 discriminator 3
 141 001c 0135     		adds	r5, r5, #1
 142              	.LVL10:
 143              		.loc 2 29 0 discriminator 3
 144 001e 0444     		add	r4, r4, r0
 145              	.LVL11:
 146              		.loc 2 27 0 discriminator 3
 147 0020 B542     		cmp	r5, r6
 148              		.loc 2 29 0 discriminator 3
 149 0022 A4B2     		uxth	r4, r4
 150              	.LVL12:
 151              		.loc 2 27 0 discriminator 3
 152 0024 F5D1     		bne	.L10
 153 0026 94FBF5F4 		sdiv	r4, r4, r5
 154              	.LVL13:
 155 002a A0B2     		uxth	r0, r4
 156              	.LVL14:
 157              	.L9:
 158              	.LBE12:
 159              		.loc 2 33 0
 160 002c 019A     		ldr	r2, [sp, #4]
 161 002e 3B68     		ldr	r3, [r7]
 162 0030 9A42     		cmp	r2, r3
 163 0032 01D1     		bne	.L15
 164 0034 03B0     		add	sp, sp, #12
 165              		.cfi_remember_state
 166              		.cfi_def_cfa_offset 20
 167              		@ sp needed
 168 0036 F0BD     		pop	{r4, r5, r6, r7, pc}
 169              	.L15:
 170              		.cfi_restore_state
 171 0038 FFF7FEFF 		bl	__stack_chk_fail
ARM GAS  /var/folders/0b/rh7d8qts4ys3rdpl8xd_0jkm0000gn/T//ccb1YIfy.s 			page 4


 172              	.LVL15:
 173              	.L17:
 174              		.align	2
 175              	.L16:
 176 003c 00000000 		.word	__stack_chk_guard
 177              		.cfi_endproc
 178              	.LFE260:
 179              		.size	retrieve_TOF_measure, .-retrieve_TOF_measure
 180              		.section	.text.adjust_orientation,"ax",%progbits
 181              		.align	1
 182              		.p2align 4,,15
 183              		.global	adjust_orientation
 184              		.syntax unified
 185              		.thumb
 186              		.thumb_func
 187              		.fpu fpv4-sp-d16
 188              		.type	adjust_orientation, %function
 189              	adjust_orientation:
 190              	.LFB261:
 191              		.loc 2 36 0
 192              		.cfi_startproc
 193              		@ args = 0, pretend = 0, frame = 16
 194              		@ frame_needed = 0, uses_anonymous_args = 0
 195 0000 70B5     		push	{r4, r5, r6, lr}
 196              		.cfi_def_cfa_offset 16
 197              		.cfi_offset 4, -16
 198              		.cfi_offset 5, -12
 199              		.cfi_offset 6, -8
 200              		.cfi_offset 14, -4
 201 0002 464E     		ldr	r6, .L31
 202              		.loc 2 40 0
 203 0004 464D     		ldr	r5, .L31+4
 204              		.loc 2 36 0
 205 0006 3368     		ldr	r3, [r6]
 206 0008 84B0     		sub	sp, sp, #16
 207              		.cfi_def_cfa_offset 32
 208              		.loc 2 39 0
 209 000a 0520     		movs	r0, #5
 210              		.loc 2 36 0
 211 000c 0393     		str	r3, [sp, #12]
 212              	.LVL16:
 213              		.loc 2 39 0
 214 000e FFF7FEFF 		bl	retrieve_TOF_measure
 215              	.LVL17:
 216              		.loc 2 40 0
 217 0012 D5ED020A 		vldr.32	s1, [r5, #8]
 218 0016 B2EE040A 		vmov.f32	s0, #1.0e+1
 219              		.loc 2 39 0
 220 001a 0446     		mov	r4, r0
 221              	.LVL18:
 222              		.loc 2 40 0
 223 001c FFF7FEFF 		bl	rotate_angle
 224              	.LVL19:
 225              		.loc 2 41 0
 226 0020 0520     		movs	r0, #5
 227 0022 FFF7FEFF 		bl	retrieve_TOF_measure
 228              	.LVL20:
ARM GAS  /var/folders/0b/rh7d8qts4ys3rdpl8xd_0jkm0000gn/T//ccb1YIfy.s 			page 5


 229              		.loc 2 43 0
 230 0026 07EE904A 		vmov	s15, r4	@ int
 231 002a 07EE100A 		vmov	s14, r0	@ int
 232 002e F8EE677A 		vcvt.f32.u32	s15, s15
 233 0032 04FB04F3 		mul	r3, r4, r4
 234 0036 B8EE477A 		vcvt.f32.u32	s14, s14
 235 003a 00EE103A 		vmov	s0, r3	@ int
 236 003e 77EEA77A 		vadd.f32	s15, s15, s15
 237 0042 B8EEC00A 		vcvt.f32.s32	s0, s0
 238 0046 67EE677A 		vnmul.f32	s15, s14, s15
 239 004a 9FED367A 		vldr.32	s14, .L31+8
 240 004e A7EE870A 		vfma.f32	s0, s15, s14
 241 0052 00FB00F3 		mul	r3, r0, r0
 242 0056 F0EE407A 		vmov.f32	s15, s0
 243 005a 00EE103A 		vmov	s0, r3	@ int
 244 005e B8EEC00A 		vcvt.f32.s32	s0, s0
 245 0062 37EE800A 		vadd.f32	s0, s15, s0
 246 0066 B5EE400A 		vcmp.f32	s0, #0
 247 006a F1EE10FA 		vmrs	APSR_nzcv, FPSCR
 248 006e F1EEC00A 		vsqrt.f32	s1, s0
 249 0072 47D4     		bmi	.L30
 250              	.LVL21:
 251              	.L19:
 252              		.loc 2 44 0
 253 0074 4342     		negs	r3, r0
 254 0076 07EE900A 		vmov	s15, r0	@ int
 255 007a B8EEE77A 		vcvt.f32.s32	s14, s15
 256 007e DFED297A 		vldr.32	s15, .L31+8
 257 0082 9FED296A 		vldr.32	s12, .L31+12
 258 0086 27EE277A 		vmul.f32	s14, s14, s15
 259 008a 07EE903A 		vmov	s15, r3	@ int
 260 008e C7EE206A 		vdiv.f32	s13, s14, s1
 261 0092 F8EEE77A 		vcvt.f32.s32	s15, s15
 262 0096 07EE104A 		vmov	s14, r4	@ int
 263 009a 67EE867A 		vmul.f32	s15, s15, s12
 264 009e B8EEC70A 		vcvt.f32.s32	s0, s14
 265 00a2 C7EEA00A 		vdiv.f32	s1, s15, s1
 266              	.LVL22:
 267 00a6 30EE660A 		vsub.f32	s0, s0, s13
 268 00aa FFF7FEFF 		bl	atan2f
 269              	.LVL23:
 270 00ae DFED1F7A 		vldr.32	s15, .L31+16
 271 00b2 DFED1F6A 		vldr.32	s13, .L31+20
 272              		.loc 2 46 0
 273 00b6 039A     		ldr	r2, [sp, #12]
 274 00b8 D5ED020A 		vldr.32	s1, [r5, #8]
 275 00bc 3368     		ldr	r3, [r6]
 276              		.loc 2 44 0
 277 00be 20EE270A 		vmul.f32	s0, s0, s15
 278 00c2 80EE267A 		vdiv.f32	s14, s0, s13
 279              	.LVL24:
 280              		.loc 2 45 0
 281 00c6 B5EEC07A 		vcmpe.f32	s14, #0
 282 00ca F1EE10FA 		vmrs	APSR_nzcv, FPSCR
 283 00ce 0CDD     		ble	.L26
 284              		.loc 2 46 0
 285 00d0 9A42     		cmp	r2, r3
ARM GAS  /var/folders/0b/rh7d8qts4ys3rdpl8xd_0jkm0000gn/T//ccb1YIfy.s 			page 6


 286 00d2 20D1     		bne	.L29
 287 00d4 BAEE040A 		vmov.f32	s0, #-1.0e+1
 288 00d8 30EE470A 		vsub.f32	s0, s0, s14
 289 00dc 30EE270A 		vadd.f32	s0, s0, s15
 290              		.loc 2 105 0
 291 00e0 04B0     		add	sp, sp, #16
 292              		.cfi_remember_state
 293              		.cfi_def_cfa_offset 16
 294              		@ sp needed
 295 00e2 BDE87040 		pop	{r4, r5, r6, lr}
 296              		.cfi_restore 14
 297              		.cfi_restore 6
 298              		.cfi_restore 5
 299              		.cfi_restore 4
 300              		.cfi_def_cfa_offset 0
 301              	.LVL25:
 302              		.loc 2 48 0
 303 00e6 FFF7FEBF 		b	rotate_angle
 304              	.LVL26:
 305              	.L26:
 306              		.cfi_restore_state
 307 00ea 9A42     		cmp	r2, r3
 308 00ec 13D1     		bne	.L29
 309 00ee BAEE040A 		vmov.f32	s0, #-1.0e+1
 310 00f2 30EE470A 		vsub.f32	s0, s0, s14
 311 00f6 30EE670A 		vsub.f32	s0, s0, s15
 312              		.loc 2 105 0
 313 00fa 04B0     		add	sp, sp, #16
 314              		.cfi_remember_state
 315              		.cfi_def_cfa_offset 16
 316              		@ sp needed
 317 00fc BDE87040 		pop	{r4, r5, r6, lr}
 318              		.cfi_restore 14
 319              		.cfi_restore 6
 320              		.cfi_restore 5
 321              		.cfi_restore 4
 322              		.cfi_def_cfa_offset 0
 323              	.LVL27:
 324              		.loc 2 48 0
 325 0100 FFF7FEBF 		b	rotate_angle
 326              	.LVL28:
 327              	.L30:
 328              		.cfi_restore_state
 329 0104 0190     		str	r0, [sp, #4]
 330 0106 CDED000A 		vstr.32	s1, [sp]	@ int
 331              		.loc 2 43 0
 332 010a FFF7FEFF 		bl	sqrtf
 333              	.LVL29:
 334 010e 0198     		ldr	r0, [sp, #4]
 335 0110 DDED000A 		vldr.32	s1, [sp]	@ int
 336 0114 AEE7     		b	.L19
 337              	.LVL30:
 338              	.L29:
 339              		.loc 2 48 0
 340 0116 FFF7FEFF 		bl	__stack_chk_fail
 341              	.LVL31:
 342              	.L32:
ARM GAS  /var/folders/0b/rh7d8qts4ys3rdpl8xd_0jkm0000gn/T//ccb1YIfy.s 			page 7


 343 011a 00BF     		.align	2
 344              	.L31:
 345 011c 00000000 		.word	__stack_chk_guard
 346 0120 00000000 		.word	.LANCHOR0
 347 0124 611C7C3F 		.word	1065098337
 348 0128 4ED1313E 		.word	1043452238
 349 012c 00003443 		.word	1127481344
 350 0130 DB0F4940 		.word	1078530011
 351              		.cfi_endproc
 352              	.LFE261:
 353              		.size	adjust_orientation, .-adjust_orientation
 354              		.global	__aeabi_f2d
 355              		.section	.text.move_robot,"ax",%progbits
 356              		.align	1
 357              		.p2align 4,,15
 358              		.global	move_robot
 359              		.syntax unified
 360              		.thumb
 361              		.thumb_func
 362              		.fpu fpv4-sp-d16
 363              		.type	move_robot, %function
 364              	move_robot:
 365              	.LFB262:
 366              		.loc 2 107 0
 367              		.cfi_startproc
 368              		@ args = 0, pretend = 0, frame = 8
 369              		@ frame_needed = 0, uses_anonymous_args = 0
 370              	.LVL32:
 371 0000 2DE9F043 		push	{r4, r5, r6, r7, r8, r9, lr}
 372              		.cfi_def_cfa_offset 28
 373              		.cfi_offset 4, -28
 374              		.cfi_offset 5, -24
 375              		.cfi_offset 6, -20
 376              		.cfi_offset 7, -16
 377              		.cfi_offset 8, -12
 378              		.cfi_offset 9, -8
 379              		.cfi_offset 14, -4
 380 0004 2DED048B 		vpush.64	{d8, d9}
 381              		.cfi_def_cfa_offset 44
 382              		.cfi_offset 80, -44
 383              		.cfi_offset 81, -40
 384              		.cfi_offset 82, -36
 385              		.cfi_offset 83, -32
 386 0008 DFF8B091 		ldr	r9, .L60+32
 387 000c 634C     		ldr	r4, .L60
 388 000e D9F80030 		ldr	r3, [r9]
 389 0012 85B0     		sub	sp, sp, #20
 390              		.cfi_def_cfa_offset 64
 391              		.loc 2 107 0
 392 0014 0746     		mov	r7, r0
 393 0016 8846     		mov	r8, r1
 394 0018 0393     		str	r3, [sp, #12]
 395 001a B0EE408A 		vmov.f32	s16, s0
 396 001e 2088     		ldrh	r0, [r4]
 397              	.LVL33:
 398 0020 6188     		ldrh	r1, [r4, #2]
 399              	.LVL34:
ARM GAS  /var/folders/0b/rh7d8qts4ys3rdpl8xd_0jkm0000gn/T//ccb1YIfy.s 			page 8


 400              		.loc 2 109 0
 401 0022 002A     		cmp	r2, #0
 402 0024 40F09280 		bne	.L53
 403              	.LVL35:
 404              	.L34:
 405              		.loc 2 120 0
 406 0028 381A     		subs	r0, r7, r0
 407              		.loc 2 121 0
 408 002a A8EB0101 		sub	r1, r8, r1
 409              		.loc 2 120 0
 410 002e 05B2     		sxth	r5, r0
 411              	.LVL36:
 412              		.loc 2 121 0
 413 0030 0EB2     		sxth	r6, r1
 414              	.LVL37:
 415              		.loc 2 126 0
 416 0032 002D     		cmp	r5, #0
 417 0034 5DD0     		beq	.L54
 418              		.loc 2 129 0
 419 0036 07EE905A 		vmov	s15, r5	@ int
 420 003a B8EEE70A 		vcvt.f32.s32	s0, s15
 421 003e 07EE906A 		vmov	s15, r6	@ int
 422 0042 F8EEE77A 		vcvt.f32.s32	s15, s15
 423 0046 87EE800A 		vdiv.f32	s0, s15, s0
 424 004a FFF7FEFF 		bl	atanf
 425              	.LVL38:
 426              		.loc 2 134 0
 427 004e 002D     		cmp	r5, #0
 428              		.loc 2 129 0
 429 0050 DFED537A 		vldr.32	s15, .L60+4
 430 0054 9FED537A 		vldr.32	s14, .L60+8
 431              		.loc 2 135 0
 432 0058 D4ED020A 		vldr.32	s1, [r4, #8]
 433              		.loc 2 129 0
 434 005c 20EE270A 		vmul.f32	s0, s0, s15
 435 0060 C0EE078A 		vdiv.f32	s17, s0, s14
 436              	.LVL39:
 437              		.loc 2 134 0
 438 0064 5ADD     		ble	.L38
 439              		.loc 2 134 0 is_stmt 0 discriminator 1
 440 0066 002E     		cmp	r6, #0
 441 0068 69D1     		bne	.L55
 442              		.loc 2 146 0 is_stmt 1
 443 006a B1EE600A 		vneg.f32	s0, s1
 444 006e FFF7FEFF 		bl	rotate_angle
 445              	.LVL40:
 446 0072 84ED020A 		vstr.32	s0, [r4, #8]
 447              	.LVL41:
 448              	.L40:
 449              		.loc 2 152 0
 450 0076 06FB06F3 		mul	r3, r6, r6
 451 007a 05FB0533 		mla	r3, r5, r5, r3
 452 007e 00EE103A 		vmov	s0, r3	@ int
 453 0082 B8EEC00A 		vcvt.f32.s32	s0, s0
 454 0086 B5EE400A 		vcmp.f32	s0, #0
 455 008a F1EE10FA 		vmrs	APSR_nzcv, FPSCR
 456 008e B1EEC09A 		vsqrt.f32	s18, s0
ARM GAS  /var/folders/0b/rh7d8qts4ys3rdpl8xd_0jkm0000gn/T//ccb1YIfy.s 			page 9


 457 0092 7DD4     		bmi	.L56
 458              	.L43:
 459              	.LVL42:
 460              		.loc 2 155 0
 461 0094 B0EE490A 		vmov.f32	s0, s18
 462 0098 FFF7FEFF 		bl	move
 463              	.LVL43:
 464 009c 18EE900A 		vmov	r0, s17
 465 00a0 FFF7FEFF 		bl	__aeabi_f2d
 466              	.LVL44:
 467 00a4 0246     		mov	r2, r0
 468 00a6 0B46     		mov	r3, r1
 469              	.LVL45:
 470              	.L36:
 471              		.loc 2 157 0
 472 00a8 3F49     		ldr	r1, .L60+12
 473 00aa 4048     		ldr	r0, .L60+16
 474 00ac CDE90056 		strd	r5, r6, [sp]
 475 00b0 FFF7FEFF 		bl	chprintf.constprop.0
 476              	.LVL46:
 477              		.loc 2 163 0
 478 00b4 D4ED020A 		vldr.32	s1, [r4, #8]
 479 00b8 9FED3D0A 		vldr.32	s0, .L60+20
 480              		.loc 2 161 0
 481 00bc 2780     		strh	r7, [r4]	@ movhi
 482              		.loc 2 162 0
 483 00be A4F80280 		strh	r8, [r4, #2]	@ movhi
 484              		.loc 2 163 0
 485 00c2 FFF7FEFF 		bl	rotate_angle
 486              	.LVL47:
 487 00c6 F0EE407A 		vmov.f32	s15, s0
 488              		.loc 2 164 0
 489 00ca F0EE670A 		vmov.f32	s1, s15
 490 00ce 38EE400A 		vsub.f32	s0, s16, s0
 491              		.loc 2 163 0
 492 00d2 C4ED027A 		vstr.32	s15, [r4, #8]
 493              		.loc 2 164 0
 494 00d6 FFF7FEFF 		bl	rotate_angle
 495              	.LVL48:
 496              		.loc 2 165 0
 497 00da 039A     		ldr	r2, [sp, #12]
 498 00dc D9F80030 		ldr	r3, [r9]
 499              		.loc 2 164 0
 500 00e0 84ED020A 		vstr.32	s0, [r4, #8]
 501              		.loc 2 165 0
 502 00e4 9A42     		cmp	r2, r3
 503 00e6 56D1     		bne	.L57
 504 00e8 05B0     		add	sp, sp, #20
 505              		.cfi_remember_state
 506              		.cfi_def_cfa_offset 44
 507              		@ sp needed
 508 00ea BDEC048B 		vldm	sp!, {d8-d9}
 509              		.cfi_restore 82
 510              		.cfi_restore 83
 511              		.cfi_restore 80
 512              		.cfi_restore 81
 513              		.cfi_def_cfa_offset 28
ARM GAS  /var/folders/0b/rh7d8qts4ys3rdpl8xd_0jkm0000gn/T//ccb1YIfy.s 			page 10


 514              	.LVL49:
 515 00ee BDE8F083 		pop	{r4, r5, r6, r7, r8, r9, pc}
 516              	.LVL50:
 517              	.L54:
 518              		.cfi_restore_state
 519              		.loc 2 126 0 discriminator 1
 520 00f2 002E     		cmp	r6, #0
 521 00f4 0FD0     		beq	.L58
 522 00f6 D4ED020A 		vldr.32	s1, [r4, #8]
 523              		.loc 2 140 0
 524 00fa CCBF     		ite	gt
 525 00fc 9FED2D0A 		vldrgt.32	s0, .L60+24
 526              		.loc 2 142 0
 527 0100 9FED2D0A 		vldrle.32	s0, .L60+28
 528              		.loc 2 124 0
 529 0104 DFED2A8A 		vldr.32	s17, .L60+20
 530              		.loc 2 142 0
 531 0108 30EE600A 		vsub.f32	s0, s0, s1
 532 010c FFF7FEFF 		bl	rotate_angle
 533              	.LVL51:
 534 0110 84ED020A 		vstr.32	s0, [r4, #8]
 535 0114 AFE7     		b	.L40
 536              	.L58:
 537 0116 0022     		movs	r2, #0
 538 0118 0023     		movs	r3, #0
 539 011a C5E7     		b	.L36
 540              	.LVL52:
 541              	.L38:
 542              		.loc 2 136 0 discriminator 1
 543 011c 36B9     		cbnz	r6, .L59
 544              		.loc 2 148 0
 545 011e 37EEE00A 		vsub.f32	s0, s15, s1
 546 0122 FFF7FEFF 		bl	rotate_angle
 547              	.LVL53:
 548 0126 84ED020A 		vstr.32	s0, [r4, #8]
 549 012a A4E7     		b	.L40
 550              	.L59:
 551              		.loc 2 137 0
 552 012c 38EEA70A 		vadd.f32	s0, s17, s15
 553 0130 30EE600A 		vsub.f32	s0, s0, s1
 554 0134 FFF7FEFF 		bl	rotate_angle
 555              	.LVL54:
 556 0138 84ED020A 		vstr.32	s0, [r4, #8]
 557 013c 9BE7     		b	.L40
 558              	.L55:
 559              		.loc 2 135 0
 560 013e 38EEE00A 		vsub.f32	s0, s17, s1
 561 0142 FFF7FEFF 		bl	rotate_angle
 562              	.LVL55:
 563 0146 84ED020A 		vstr.32	s0, [r4, #8]
 564 014a 94E7     		b	.L40
 565              	.LVL56:
 566              	.L53:
 567              		.loc 2 110 0
 568 014c 9FED149A 		vldr.32	s18, .L60+4
 569              		.loc 2 114 0
 570 0150 DFED198A 		vldr.32	s17, .L60+28
ARM GAS  /var/folders/0b/rh7d8qts4ys3rdpl8xd_0jkm0000gn/T//ccb1YIfy.s 			page 11


 571              		.loc 2 110 0
 572 0154 B0EE490A 		vmov.f32	s0, s18
 573              	.LVL57:
 574 0158 0022     		movs	r2, #0
 575              	.LVL58:
 576 015a FFF7FEFF 		bl	move_robot
 577              	.LVL59:
 578              		.loc 2 111 0
 579 015e FFF7FEFF 		bl	adjust_orientation
 580              	.LVL60:
 581              		.loc 2 113 0
 582 0162 0A20     		movs	r0, #10
 583              		.loc 2 112 0
 584 0164 84ED029A 		vstr.32	s18, [r4, #8]
 585              		.loc 2 113 0
 586 0168 FFF7FEFF 		bl	retrieve_TOF_measure
 587              	.LVL61:
 588              		.loc 2 114 0
 589 016c 6188     		ldrh	r1, [r4, #2]
 590              		.loc 2 113 0
 591 016e 2080     		strh	r0, [r4]	@ movhi
 592              		.loc 2 114 0
 593 0170 B0EE680A 		vmov.f32	s0, s17
 594 0174 0022     		movs	r2, #0
 595 0176 FFF7FEFF 		bl	move_robot
 596              	.LVL62:
 597              		.loc 2 115 0
 598 017a FFF7FEFF 		bl	adjust_orientation
 599              	.LVL63:
 600              		.loc 2 117 0
 601 017e 0A20     		movs	r0, #10
 602              		.loc 2 116 0
 603 0180 C4ED028A 		vstr.32	s17, [r4, #8]
 604              		.loc 2 117 0
 605 0184 FFF7FEFF 		bl	retrieve_TOF_measure
 606              	.LVL64:
 607 0188 0146     		mov	r1, r0
 608 018a 6180     		strh	r1, [r4, #2]	@ movhi
 609 018c 2088     		ldrh	r0, [r4]
 610 018e 4BE7     		b	.L34
 611              	.LVL65:
 612              	.L56:
 613              		.loc 2 152 0
 614 0190 FFF7FEFF 		bl	sqrtf
 615              	.LVL66:
 616 0194 7EE7     		b	.L43
 617              	.LVL67:
 618              	.L57:
 619              		.loc 2 165 0
 620 0196 FFF7FEFF 		bl	__stack_chk_fail
 621              	.LVL68:
 622              	.L61:
 623 019a 00BF     		.align	2
 624              	.L60:
 625 019c 00000000 		.word	.LANCHOR0
 626 01a0 00003443 		.word	1127481344
 627 01a4 DB0F4940 		.word	1078530011
ARM GAS  /var/folders/0b/rh7d8qts4ys3rdpl8xd_0jkm0000gn/T//ccb1YIfy.s 			page 12


 628 01a8 00000000 		.word	.LC0
 629 01ac 00000000 		.word	SD3
 630 01b0 00000000 		.word	0
 631 01b4 0000B442 		.word	1119092736
 632 01b8 0000B4C2 		.word	3266576384
 633 01bc 00000000 		.word	__stack_chk_guard
 634              		.cfi_endproc
 635              	.LFE262:
 636              		.size	move_robot, .-move_robot
 637              		.section	.text.chose_color_to_analyse,"ax",%progbits
 638              		.align	1
 639              		.p2align 4,,15
 640              		.global	chose_color_to_analyse
 641              		.syntax unified
 642              		.thumb
 643              		.thumb_func
 644              		.fpu fpv4-sp-d16
 645              		.type	chose_color_to_analyse, %function
 646              	chose_color_to_analyse:
 647              	.LFB263:
 648              		.loc 2 167 0
 649              		.cfi_startproc
 650              		@ args = 0, pretend = 0, frame = 8
 651              		@ frame_needed = 0, uses_anonymous_args = 0
 652              	.LVL69:
 653 0000 00B5     		push	{lr}
 654              		.cfi_def_cfa_offset 4
 655              		.cfi_offset 14, -4
 656 0002 084B     		ldr	r3, .L69
 657 0004 83B0     		sub	sp, sp, #12
 658              		.cfi_def_cfa_offset 16
 659              		.loc 2 167 0
 660 0006 1A68     		ldr	r2, [r3]
 661 0008 0192     		str	r2, [sp, #4]
 662              		.loc 2 174 0
 663 000a 019A     		ldr	r2, [sp, #4]
 664 000c 1B68     		ldr	r3, [r3]
 665 000e 9A42     		cmp	r2, r3
 666 0010 05D1     		bne	.L68
 667 0012 B0FA80F0 		clz	r0, r0
 668              	.LVL70:
 669 0016 4009     		lsrs	r0, r0, #5
 670 0018 03B0     		add	sp, sp, #12
 671              		.cfi_remember_state
 672              		.cfi_def_cfa_offset 4
 673              		@ sp needed
 674 001a 5DF804FB 		ldr	pc, [sp], #4
 675              	.LVL71:
 676              	.L68:
 677              		.cfi_restore_state
 678 001e FFF7FEFF 		bl	__stack_chk_fail
 679              	.LVL72:
 680              	.L70:
 681 0022 00BF     		.align	2
 682              	.L69:
 683 0024 00000000 		.word	__stack_chk_guard
 684              		.cfi_endproc
ARM GAS  /var/folders/0b/rh7d8qts4ys3rdpl8xd_0jkm0000gn/T//ccb1YIfy.s 			page 13


 685              	.LFE263:
 686              		.size	chose_color_to_analyse, .-chose_color_to_analyse
 687              		.section	.text.attribute_goal,"ax",%progbits
 688              		.align	1
 689              		.p2align 4,,15
 690              		.global	attribute_goal
 691              		.syntax unified
 692              		.thumb
 693              		.thumb_func
 694              		.fpu fpv4-sp-d16
 695              		.type	attribute_goal, %function
 696              	attribute_goal:
 697              	.LFB264:
 698              		.loc 2 177 0
 699              		.cfi_startproc
 700              		@ args = 0, pretend = 0, frame = 8
 701              		@ frame_needed = 0, uses_anonymous_args = 0
 702 0000 2DE9F043 		push	{r4, r5, r6, r7, r8, r9, lr}
 703              		.cfi_def_cfa_offset 28
 704              		.cfi_offset 4, -28
 705              		.cfi_offset 5, -24
 706              		.cfi_offset 6, -20
 707              		.cfi_offset 7, -16
 708              		.cfi_offset 8, -12
 709              		.cfi_offset 9, -8
 710              		.cfi_offset 14, -4
 711 0004 2DED028B 		vpush.64	{d8}
 712              		.cfi_def_cfa_offset 36
 713              		.cfi_offset 80, -36
 714              		.cfi_offset 81, -32
 715 0008 D94E     		ldr	r6, .L119
 716              	.LBB13:
 717              		.loc 2 183 0
 718 000a DA4D     		ldr	r5, .L119+4
 719              	.LBE13:
 720              		.loc 2 177 0
 721 000c 3368     		ldr	r3, [r6]
 722              		.loc 2 187 0
 723 000e 9FEDDA0A 		vldr.32	s0, .L119+8
 724 0012 DA4C     		ldr	r4, .L119+12
 725              		.loc 2 196 0
 726 0014 9FEDD88A 		vldr.32	s16, .L119+8
 727              		.loc 2 177 0
 728 0018 83B0     		sub	sp, sp, #12
 729              		.cfi_def_cfa_offset 48
 730              		.loc 2 187 0
 731 001a 0122     		movs	r2, #1
 732              		.loc 2 177 0
 733 001c 0193     		str	r3, [sp, #4]
 734              	.LVL73:
 735              		.loc 2 187 0
 736 001e A021     		movs	r1, #160
 737              	.LBB14:
 738              		.loc 2 183 0
 739 0020 0423     		movs	r3, #4
 740              	.LBE14:
 741              		.loc 2 187 0
ARM GAS  /var/folders/0b/rh7d8qts4ys3rdpl8xd_0jkm0000gn/T//ccb1YIfy.s 			page 14


 742 0022 6420     		movs	r0, #100
 743              	.LBB15:
 744              		.loc 2 183 0
 745 0024 AB71     		strb	r3, [r5, #6]
 746              	.LVL74:
 747 0026 AB73     		strb	r3, [r5, #14]
 748              	.LVL75:
 749 0028 AB75     		strb	r3, [r5, #22]
 750              	.LVL76:
 751              	.LBE15:
 752              		.loc 2 187 0
 753 002a FFF7FEFF 		bl	move_robot
 754              	.LVL77:
 755              		.loc 2 188 0
 756 002e 4FF47A70 		mov	r0, #1000
 757 0032 FFF7FEFF 		bl	chThdSleep
 758              	.LVL78:
 759              	.L74:
 760              		.loc 2 190 0
 761 0036 4FF4FA70 		mov	r0, #500
 762 003a FFF7FEFF 		bl	chThdSleep
 763              	.LVL79:
 764              		.loc 2 191 0
 765 003e FFF7FEFF 		bl	get_color_detected
 766              	.LVL80:
 767 0042 0328     		cmp	r0, #3
 768 0044 00F0A180 		beq	.L72
 769              	.LVL81:
 770              		.loc 2 197 0
 771 0048 4FF47A70 		mov	r0, #1000
 772 004c FFF7FEFF 		bl	chThdSleep
 773              	.LVL82:
 774              	.L73:
 775              		.loc 2 199 0
 776 0050 FFF7FEFF 		bl	get_color_detected
 777              	.LVL83:
 778              		.loc 2 201 0
 779 0054 0328     		cmp	r0, #3
 780              		.loc 2 199 0
 781 0056 A871     		strb	r0, [r5, #6]
 782              		.loc 2 201 0
 783 0058 40F0AA80 		bne	.L75
 784              		.loc 2 202 0
 785 005c 0423     		movs	r3, #4
 786 005e 4FF00008 		mov	r8, #0
 787 0062 AB71     		strb	r3, [r5, #6]
 788              		.loc 2 185 0
 789 0064 4746     		mov	r7, r8
 790              	.LVL84:
 791              	.L76:
 792              		.loc 2 225 0
 793 0066 A088     		ldrh	r0, [r4, #4]
 794 0068 9FEDC90A 		vldr.32	s0, .L119+32
 795 006c A038     		subs	r0, r0, #160
 796 006e 0122     		movs	r2, #1
 797 0070 6421     		movs	r1, #100
 798 0072 80B2     		uxth	r0, r0
ARM GAS  /var/folders/0b/rh7d8qts4ys3rdpl8xd_0jkm0000gn/T//ccb1YIfy.s 			page 15


 799              		.loc 2 235 0
 800 0074 B0EE408A 		vmov.f32	s16, s0
 801              		.loc 2 225 0
 802 0078 FFF7FEFF 		bl	move_robot
 803              	.LVL85:
 804              		.loc 2 226 0
 805 007c 4FF47A70 		mov	r0, #1000
 806 0080 FFF7FEFF 		bl	chThdSleep
 807              	.LVL86:
 808              		.loc 2 228 0
 809 0084 4FF4FA70 		mov	r0, #500
 810 0088 FFF7FEFF 		bl	chThdSleep
 811              	.LVL87:
 812              		.loc 2 229 0
 813 008c FFF7FEFF 		bl	get_color_detected
 814              	.LVL88:
 815 0090 0328     		cmp	r0, #3
 816 0092 1AD1     		bne	.L81
 817              	.L115:
 818              		.loc 2 232 0
 819 0094 6188     		ldrh	r1, [r4, #2]
 820 0096 E388     		ldrh	r3, [r4, #6]
 821 0098 3231     		adds	r1, r1, #50
 822 009a 643B     		subs	r3, r3, #100
 823 009c 9942     		cmp	r1, r3
 824 009e 18DA     		bge	.L82
 825              		.loc 2 235 0
 826 00a0 A088     		ldrh	r0, [r4, #4]
 827 00a2 A038     		subs	r0, r0, #160
 828 00a4 89B2     		uxth	r1, r1
 829 00a6 0022     		movs	r2, #0
 830 00a8 B0EE480A 		vmov.f32	s0, s16
 831 00ac 80B2     		uxth	r0, r0
 832 00ae FFF7FEFF 		bl	move_robot
 833              	.LVL89:
 834              		.loc 2 236 0
 835 00b2 4FF47A70 		mov	r0, #1000
 836 00b6 FFF7FEFF 		bl	chThdSleep
 837              	.LVL90:
 838              		.loc 2 228 0
 839 00ba 4FF4FA70 		mov	r0, #500
 840 00be FFF7FEFF 		bl	chThdSleep
 841              	.LVL91:
 842              		.loc 2 229 0
 843 00c2 FFF7FEFF 		bl	get_color_detected
 844              	.LVL92:
 845 00c6 0328     		cmp	r0, #3
 846 00c8 E4D0     		beq	.L115
 847              	.L81:
 848              	.LVL93:
 849              		.loc 2 236 0
 850 00ca 4FF47A70 		mov	r0, #1000
 851 00ce FFF7FEFF 		bl	chThdSleep
 852              	.LVL94:
 853              	.L82:
 854              		.loc 2 238 0
 855 00d2 FFF7FEFF 		bl	get_color_detected
ARM GAS  /var/folders/0b/rh7d8qts4ys3rdpl8xd_0jkm0000gn/T//ccb1YIfy.s 			page 16


 856              	.LVL95:
 857 00d6 4FEAC808 		lsl	r8, r8, #3
 858 00da 05EB0809 		add	r9, r5, r8
 859              		.loc 2 241 0
 860 00de 0328     		cmp	r0, #3
 861              		.loc 2 238 0
 862 00e0 89F80600 		strb	r0, [r9, #6]
 863              		.loc 2 241 0
 864 00e4 40F0A081 		bne	.L84
 865              		.loc 2 242 0
 866 00e8 0423     		movs	r3, #4
 867 00ea 89F80630 		strb	r3, [r9, #6]
 868              	.L85:
 869              	.LVL96:
 870              		.loc 2 263 0
 871 00ee E188     		ldrh	r1, [r4, #6]
 872 00f0 A088     		ldrh	r0, [r4, #4]
 873 00f2 9FEDA30A 		vldr.32	s0, .L119+16
 874 00f6 A039     		subs	r1, r1, #160
 875 00f8 6438     		subs	r0, r0, #100
 876 00fa 89B2     		uxth	r1, r1
 877 00fc 0122     		movs	r2, #1
 878 00fe 80B2     		uxth	r0, r0
 879              		.loc 2 273 0
 880 0100 B0EE408A 		vmov.f32	s16, s0
 881              		.loc 2 263 0
 882 0104 FFF7FEFF 		bl	move_robot
 883              	.LVL97:
 884              		.loc 2 264 0
 885 0108 4FF47A70 		mov	r0, #1000
 886 010c FFF7FEFF 		bl	chThdSleep
 887              	.LVL98:
 888              		.loc 2 266 0
 889 0110 4FF4FA70 		mov	r0, #500
 890 0114 FFF7FEFF 		bl	chThdSleep
 891              	.LVL99:
 892              		.loc 2 267 0
 893 0118 FFF7FEFF 		bl	get_color_detected
 894              	.LVL100:
 895 011c 0328     		cmp	r0, #3
 896 011e 18D1     		bne	.L90
 897              	.L116:
 898              		.loc 2 270 0
 899 0120 2088     		ldrh	r0, [r4]
 900 0122 9628     		cmp	r0, #150
 901 0124 19D9     		bls	.L91
 902              		.loc 2 273 0
 903 0126 E188     		ldrh	r1, [r4, #6]
 904 0128 3238     		subs	r0, r0, #50
 905 012a A039     		subs	r1, r1, #160
 906 012c 89B2     		uxth	r1, r1
 907 012e 0022     		movs	r2, #0
 908 0130 B0EE480A 		vmov.f32	s0, s16
 909 0134 80B2     		uxth	r0, r0
 910 0136 FFF7FEFF 		bl	move_robot
 911              	.LVL101:
 912              		.loc 2 274 0
ARM GAS  /var/folders/0b/rh7d8qts4ys3rdpl8xd_0jkm0000gn/T//ccb1YIfy.s 			page 17


 913 013a 4FF47A70 		mov	r0, #1000
 914 013e FFF7FEFF 		bl	chThdSleep
 915              	.LVL102:
 916              		.loc 2 266 0
 917 0142 4FF4FA70 		mov	r0, #500
 918 0146 FFF7FEFF 		bl	chThdSleep
 919              	.LVL103:
 920              		.loc 2 267 0
 921 014a FFF7FEFF 		bl	get_color_detected
 922              	.LVL104:
 923 014e 0328     		cmp	r0, #3
 924 0150 E6D0     		beq	.L116
 925              	.L90:
 926              	.LVL105:
 927              		.loc 2 274 0
 928 0152 4FF47A70 		mov	r0, #1000
 929 0156 FFF7FEFF 		bl	chThdSleep
 930              	.LVL106:
 931              	.L91:
 932              		.loc 2 276 0
 933 015a FFF7FEFF 		bl	get_color_detected
 934              	.LVL107:
 935 015e 05EB0809 		add	r9, r5, r8
 936              		.loc 2 279 0
 937 0162 0328     		cmp	r0, #3
 938              		.loc 2 276 0
 939 0164 89F80600 		strb	r0, [r9, #6]
 940              		.loc 2 279 0
 941 0168 6ED1     		bne	.L93
 942              		.loc 2 280 0
 943 016a 0423     		movs	r3, #4
 944              		.loc 2 301 0
 945 016c 022F     		cmp	r7, #2
 946              		.loc 2 280 0
 947 016e 89F80630 		strb	r3, [r9, #6]
 948              		.loc 2 301 0
 949 0172 00F0BF80 		beq	.L117
 950              	.L71:
 951              		.loc 2 335 0
 952 0176 019A     		ldr	r2, [sp, #4]
 953 0178 3368     		ldr	r3, [r6]
 954 017a 9A42     		cmp	r2, r3
 955 017c 40F0AC81 		bne	.L114
 956 0180 03B0     		add	sp, sp, #12
 957              		.cfi_remember_state
 958              		.cfi_def_cfa_offset 36
 959              		@ sp needed
 960 0182 BDEC028B 		vldm	sp!, {d8}
 961              		.cfi_restore 80
 962              		.cfi_restore 81
 963              		.cfi_def_cfa_offset 28
 964 0186 BDE8F083 		pop	{r4, r5, r6, r7, r8, r9, pc}
 965              	.LVL108:
 966              	.L72:
 967              		.cfi_restore_state
 968              		.loc 2 193 0
 969 018a 2088     		ldrh	r0, [r4]
ARM GAS  /var/folders/0b/rh7d8qts4ys3rdpl8xd_0jkm0000gn/T//ccb1YIfy.s 			page 18


 970 018c A388     		ldrh	r3, [r4, #4]
 971 018e 3230     		adds	r0, r0, #50
 972 0190 643B     		subs	r3, r3, #100
 973 0192 9842     		cmp	r0, r3
 974 0194 BFF65CAF 		bge	.L73
 975              		.loc 2 196 0
 976 0198 80B2     		uxth	r0, r0
 977 019a 0022     		movs	r2, #0
 978 019c B0EE480A 		vmov.f32	s0, s16
 979 01a0 A021     		movs	r1, #160
 980 01a2 FFF7FEFF 		bl	move_robot
 981              	.LVL109:
 982              		.loc 2 197 0
 983 01a6 4FF47A70 		mov	r0, #1000
 984 01aa FFF7FEFF 		bl	chThdSleep
 985              	.LVL110:
 986 01ae 42E7     		b	.L74
 987              	.LVL111:
 988              	.L75:
 989              		.loc 2 204 0
 990 01b0 FFF7FEFF 		bl	light_rgb_led
 991              	.LVL112:
 992              	.LBB16:
 993              	.LBB17:
 994              		.loc 2 168 0
 995 01b4 AF79     		ldrb	r7, [r5, #6]	@ zero_extendqisi2
 996              	.LBE17:
 997              	.LBE16:
 998              		.loc 2 207 0
 999 01b6 9FED708A 		vldr.32	s16, .L119+8
 1000              	.LBB19:
 1001              	.LBB18:
 1002              		.loc 2 172 0
 1003 01ba B7FA87F7 		clz	r7, r7
 1004 01be 7F09     		lsrs	r7, r7, #5
 1005              	.LVL113:
 1006              	.LBE18:
 1007              	.LBE19:
 1008              		.loc 2 206 0
 1009 01c0 0CE0     		b	.L79
 1010              	.L80:
 1011              		.loc 2 207 0
 1012 01c2 6188     		ldrh	r1, [r4, #2]
 1013 01c4 2088     		ldrh	r0, [r4]
 1014 01c6 3231     		adds	r1, r1, #50
 1015 01c8 89B2     		uxth	r1, r1
 1016 01ca 0122     		movs	r2, #1
 1017 01cc B0EE480A 		vmov.f32	s0, s16
 1018 01d0 FFF7FEFF 		bl	move_robot
 1019              	.LVL114:
 1020              		.loc 2 208 0
 1021 01d4 4FF4FA70 		mov	r0, #500
 1022 01d8 FFF7FEFF 		bl	chThdSleep
 1023              	.LVL115:
 1024              	.L79:
 1025              		.loc 2 206 0
 1026 01dc 3846     		mov	r0, r7
ARM GAS  /var/folders/0b/rh7d8qts4ys3rdpl8xd_0jkm0000gn/T//ccb1YIfy.s 			page 19


 1027 01de FFF7FEFF 		bl	get_line_width
 1028              	.LVL116:
 1029 01e2 0028     		cmp	r0, #0
 1030 01e4 EDD0     		beq	.L80
 1031              		.loc 2 210 0
 1032 01e6 FFF7FEFF 		bl	get_line_position
 1033              	.LVL117:
 1034              		.loc 2 212 0
 1035 01ea 6188     		ldrh	r1, [r4, #2]
 1036              	.LVL118:
 1037 01ec DFED665A 		vldr.32	s11, .L119+24
 1038 01f0 9FED666A 		vldr.32	s12, .L119+28
 1039              		.loc 2 213 0
 1040 01f4 2388     		ldrh	r3, [r4]
 1041 01f6 9FED600A 		vldr.32	s0, .L119+8
 1042              		.loc 2 212 0
 1043 01fa 07EE901A 		vmov	s15, r1	@ int
 1044 01fe A0F5A070 		sub	r0, r0, #320
 1045              	.LVL119:
 1046 0202 B8EEE77A 		vcvt.f32.s32	s14, s15
 1047 0206 07EE900A 		vmov	s15, r0	@ int
 1048 020a F8EEE76A 		vcvt.f32.s32	s13, s15
 1049 020e 67EE257A 		vmul.f32	s15, s14, s11
 1050              		.loc 2 213 0
 1051 0212 0122     		movs	r2, #1
 1052              		.loc 2 212 0
 1053 0214 67EEA67A 		vmul.f32	s15, s15, s13
 1054              		.loc 2 218 0
 1055 0218 9046     		mov	r8, r2
 1056              		.loc 2 212 0
 1057 021a 87EE867A 		vdiv.f32	s14, s15, s12
 1058              		.loc 2 217 0
 1059 021e 1746     		mov	r7, r2
 1060              		.loc 2 212 0
 1061 0220 FDEEC77A 		vcvt.s32.f32	s15, s14
 1062 0224 17EE900A 		vmov	r0, s15	@ int
 1063              		.loc 2 213 0
 1064 0228 181A     		subs	r0, r3, r0
 1065 022a 80B2     		uxth	r0, r0
 1066 022c FFF7FEFF 		bl	move_robot
 1067              	.LVL120:
 1068              		.loc 2 214 0
 1069 0230 41F28830 		movw	r0, #5000
 1070 0234 FFF7FEFF 		bl	chThdSleep
 1071              	.LVL121:
 1072              		.loc 2 215 0
 1073 0238 2388     		ldrh	r3, [r4]
 1074 023a 6B80     		strh	r3, [r5, #2]	@ movhi
 1075              		.loc 2 218 0
 1076 023c 0520     		movs	r0, #5
 1077              		.loc 2 216 0
 1078 023e 0023     		movs	r3, #0
 1079 0240 AB80     		strh	r3, [r5, #4]	@ movhi
 1080              	.LVL122:
 1081              		.loc 2 218 0
 1082 0242 FFF7FEFF 		bl	light_rgb_led
 1083              	.LVL123:
ARM GAS  /var/folders/0b/rh7d8qts4ys3rdpl8xd_0jkm0000gn/T//ccb1YIfy.s 			page 20


 1084 0246 0EE7     		b	.L76
 1085              	.LVL124:
 1086              	.L93:
 1087              		.loc 2 282 0
 1088 0248 FFF7FEFF 		bl	light_rgb_led
 1089              	.LVL125:
 1090              	.LBB20:
 1091              	.LBB21:
 1092              		.loc 2 168 0
 1093 024c 99F80690 		ldrb	r9, [r9, #6]	@ zero_extendqisi2
 1094              	.LBE21:
 1095              	.LBE20:
 1096              		.loc 2 285 0
 1097 0250 9FED4B8A 		vldr.32	s16, .L119+16
 1098              	.LBB23:
 1099              	.LBB22:
 1100              		.loc 2 172 0
 1101 0254 B9FA89F9 		clz	r9, r9
 1102 0258 4FEA5919 		lsr	r9, r9, #5
 1103              	.LBE22:
 1104              	.LBE23:
 1105              		.loc 2 284 0
 1106 025c 0CE0     		b	.L97
 1107              	.L98:
 1108              		.loc 2 285 0
 1109 025e 6188     		ldrh	r1, [r4, #2]
 1110 0260 2088     		ldrh	r0, [r4]
 1111 0262 3239     		subs	r1, r1, #50
 1112 0264 89B2     		uxth	r1, r1
 1113 0266 0122     		movs	r2, #1
 1114 0268 B0EE480A 		vmov.f32	s0, s16
 1115 026c FFF7FEFF 		bl	move_robot
 1116              	.LVL126:
 1117              		.loc 2 286 0
 1118 0270 4FF4FA70 		mov	r0, #500
 1119 0274 FFF7FEFF 		bl	chThdSleep
 1120              	.LVL127:
 1121              	.L97:
 1122              		.loc 2 284 0
 1123 0278 4846     		mov	r0, r9
 1124 027a FFF7FEFF 		bl	get_line_width
 1125              	.LVL128:
 1126 027e 0028     		cmp	r0, #0
 1127 0280 EDD0     		beq	.L98
 1128              		.loc 2 288 0
 1129 0282 FFF7FEFF 		bl	get_line_position
 1130              	.LVL129:
 1131              		.loc 2 290 0
 1132 0286 6188     		ldrh	r1, [r4, #2]
 1133              	.LVL130:
 1134 0288 E388     		ldrh	r3, [r4, #6]
 1135 028a 9FED3F6A 		vldr.32	s12, .L119+24
 1136 028e DFED3F6A 		vldr.32	s13, .L119+28
 1137              		.loc 2 291 0
 1138 0292 B4F800C0 		ldrh	ip, [r4]
 1139 0296 9FED3A0A 		vldr.32	s0, .L119+16
 1140              		.loc 2 290 0
ARM GAS  /var/folders/0b/rh7d8qts4ys3rdpl8xd_0jkm0000gn/T//ccb1YIfy.s 			page 21


 1141 029a 5B1A     		subs	r3, r3, r1
 1142 029c 07EE103A 		vmov	s14, r3	@ int
 1143 02a0 A0F5A070 		sub	r0, r0, #320
 1144              	.LVL131:
 1145 02a4 07EE900A 		vmov	s15, r0	@ int
 1146 02a8 B8EEC77A 		vcvt.f32.s32	s14, s14
 1147 02ac F8EEE77A 		vcvt.f32.s32	s15, s15
 1148 02b0 27EE067A 		vmul.f32	s14, s14, s12
 1149              		.loc 2 291 0
 1150 02b4 0122     		movs	r2, #1
 1151              		.loc 2 290 0
 1152 02b6 67EE277A 		vmul.f32	s15, s14, s15
 1153              		.loc 2 293 0
 1154 02ba A844     		add	r8, r8, r5
 1155              		.loc 2 290 0
 1156 02bc 87EEA67A 		vdiv.f32	s14, s15, s13
 1157              		.loc 2 295 0
 1158 02c0 0137     		adds	r7, r7, #1
 1159              	.LVL132:
 1160 02c2 FFB2     		uxtb	r7, r7
 1161              		.loc 2 290 0
 1162 02c4 FDEEC77A 		vcvt.s32.f32	s15, s14
 1163 02c8 17EE900A 		vmov	r0, s15	@ int
 1164              		.loc 2 291 0
 1165 02cc 6044     		add	r0, r0, ip
 1166 02ce 80B2     		uxth	r0, r0
 1167 02d0 FFF7FEFF 		bl	move_robot
 1168              	.LVL133:
 1169              		.loc 2 292 0
 1170 02d4 41F28830 		movw	r0, #5000
 1171 02d8 FFF7FEFF 		bl	chThdSleep
 1172              	.LVL134:
 1173              		.loc 2 293 0
 1174 02dc 2288     		ldrh	r2, [r4]
 1175              		.loc 2 294 0
 1176 02de E388     		ldrh	r3, [r4, #6]
 1177              		.loc 2 293 0
 1178 02e0 A8F80220 		strh	r2, [r8, #2]	@ movhi
 1179              		.loc 2 296 0
 1180 02e4 0520     		movs	r0, #5
 1181              		.loc 2 294 0
 1182 02e6 A8F80430 		strh	r3, [r8, #4]	@ movhi
 1183              		.loc 2 296 0
 1184 02ea FFF7FEFF 		bl	light_rgb_led
 1185              	.LVL135:
 1186              		.loc 2 301 0
 1187 02ee 022F     		cmp	r7, #2
 1188 02f0 7FF441AF 		bne	.L71
 1189              	.L117:
 1190              	.LVL136:
 1191              		.loc 2 303 0
 1192 02f4 E188     		ldrh	r1, [r4, #6]
 1193 02f6 9FED230A 		vldr.32	s0, .L119+20
 1194 02fa 6439     		subs	r1, r1, #100
 1195 02fc 89B2     		uxth	r1, r1
 1196 02fe 0122     		movs	r2, #1
 1197 0300 A020     		movs	r0, #160
ARM GAS  /var/folders/0b/rh7d8qts4ys3rdpl8xd_0jkm0000gn/T//ccb1YIfy.s 			page 22


 1198              		.loc 2 313 0
 1199 0302 B0EE408A 		vmov.f32	s16, s0
 1200              		.loc 2 303 0
 1201 0306 FFF7FEFF 		bl	move_robot
 1202              	.LVL137:
 1203              		.loc 2 304 0
 1204 030a 4FF47A70 		mov	r0, #1000
 1205 030e FFF7FEFF 		bl	chThdSleep
 1206              	.LVL138:
 1207              		.loc 2 306 0
 1208 0312 4FF4FA70 		mov	r0, #500
 1209 0316 FFF7FEFF 		bl	chThdSleep
 1210              	.LVL139:
 1211              		.loc 2 307 0
 1212 031a FFF7FEFF 		bl	get_color_detected
 1213              	.LVL140:
 1214 031e 0328     		cmp	r0, #3
 1215 0320 16D1     		bne	.L100
 1216              	.L118:
 1217              		.loc 2 310 0
 1218 0322 6188     		ldrh	r1, [r4, #2]
 1219 0324 9629     		cmp	r1, #150
 1220 0326 17D9     		bls	.L101
 1221              		.loc 2 313 0
 1222 0328 3239     		subs	r1, r1, #50
 1223 032a 89B2     		uxth	r1, r1
 1224 032c 0022     		movs	r2, #0
 1225 032e B0EE480A 		vmov.f32	s0, s16
 1226 0332 A020     		movs	r0, #160
 1227 0334 FFF7FEFF 		bl	move_robot
 1228              	.LVL141:
 1229              		.loc 2 314 0
 1230 0338 4FF47A70 		mov	r0, #1000
 1231 033c FFF7FEFF 		bl	chThdSleep
 1232              	.LVL142:
 1233              		.loc 2 306 0
 1234 0340 4FF4FA70 		mov	r0, #500
 1235 0344 FFF7FEFF 		bl	chThdSleep
 1236              	.LVL143:
 1237              		.loc 2 307 0
 1238 0348 FFF7FEFF 		bl	get_color_detected
 1239              	.LVL144:
 1240 034c 0328     		cmp	r0, #3
 1241 034e E8D0     		beq	.L118
 1242              	.L100:
 1243              	.LVL145:
 1244              		.loc 2 314 0
 1245 0350 4FF47A70 		mov	r0, #1000
 1246 0354 FFF7FEFF 		bl	chThdSleep
 1247              	.LVL146:
 1248              	.L101:
 1249              		.loc 2 316 0
 1250 0358 FFF7FEFF 		bl	get_color_detected
 1251              	.LVL147:
 1252 035c A875     		strb	r0, [r5, #22]
 1253              		.loc 2 317 0
 1254 035e FFF7FEFF 		bl	light_rgb_led
ARM GAS  /var/folders/0b/rh7d8qts4ys3rdpl8xd_0jkm0000gn/T//ccb1YIfy.s 			page 23


 1255              	.LVL148:
 1256              	.LBB24:
 1257              	.LBB25:
 1258              		.loc 2 168 0
 1259 0362 AF7D     		ldrb	r7, [r5, #22]	@ zero_extendqisi2
 1260              	.LVL149:
 1261              	.LBE25:
 1262              	.LBE24:
 1263              		.loc 2 320 0
 1264 0364 9FED078A 		vldr.32	s16, .L119+20
 1265              	.LBB27:
 1266              	.LBB26:
 1267              		.loc 2 172 0
 1268 0368 B7FA87F7 		clz	r7, r7
 1269 036c 7F09     		lsrs	r7, r7, #5
 1270              	.LVL150:
 1271              	.LBE26:
 1272              	.LBE27:
 1273              		.loc 2 319 0
 1274 036e 1EE0     		b	.L105
 1275              	.L120:
 1276              		.align	2
 1277              	.L119:
 1278 0370 00000000 		.word	__stack_chk_guard
 1279 0374 00000000 		.word	.LANCHOR1
 1280 0378 0000B4C2 		.word	3266576384
 1281 037c 00000000 		.word	.LANCHOR0
 1282 0380 0000B442 		.word	1119092736
 1283 0384 00003443 		.word	1127481344
 1284 0388 B9C2DB3E 		.word	1054589625
 1285 038c 0000A043 		.word	1134559232
 1286 0390 00000000 		.word	0
 1287              	.L106:
 1288              		.loc 2 320 0
 1289 0394 2088     		ldrh	r0, [r4]
 1290 0396 6188     		ldrh	r1, [r4, #2]
 1291 0398 3230     		adds	r0, r0, #50
 1292 039a 80B2     		uxth	r0, r0
 1293 039c 0122     		movs	r2, #1
 1294 039e B0EE480A 		vmov.f32	s0, s16
 1295 03a2 FFF7FEFF 		bl	move_robot
 1296              	.LVL151:
 1297              		.loc 2 321 0
 1298 03a6 4FF4FA70 		mov	r0, #500
 1299 03aa FFF7FEFF 		bl	chThdSleep
 1300              	.LVL152:
 1301              	.L105:
 1302              		.loc 2 319 0
 1303 03ae 3846     		mov	r0, r7
 1304 03b0 FFF7FEFF 		bl	get_line_width
 1305              	.LVL153:
 1306 03b4 0028     		cmp	r0, #0
 1307 03b6 EDD0     		beq	.L106
 1308              		.loc 2 323 0
 1309 03b8 FFF7FEFF 		bl	get_line_position
 1310              	.LVL154:
 1311              		.loc 2 325 0
ARM GAS  /var/folders/0b/rh7d8qts4ys3rdpl8xd_0jkm0000gn/T//ccb1YIfy.s 			page 24


 1312 03bc 6188     		ldrh	r1, [r4, #2]
 1313              	.LVL155:
 1314 03be 5FED0E5A 		vldr.32	s11, .L119+24
 1315 03c2 1FED0E6A 		vldr.32	s12, .L119+28
 1316              		.loc 2 326 0
 1317 03c6 1FED110A 		vldr.32	s0, .L119+20
 1318              		.loc 2 325 0
 1319 03ca 07EE901A 		vmov	s15, r1	@ int
 1320 03ce A0F5A070 		sub	r0, r0, #320
 1321              	.LVL156:
 1322 03d2 B8EEE77A 		vcvt.f32.s32	s14, s15
 1323 03d6 07EE900A 		vmov	s15, r0	@ int
 1324 03da F8EEE76A 		vcvt.f32.s32	s13, s15
 1325 03de 67EE257A 		vmul.f32	s15, s14, s11
 1326              		.loc 2 326 0
 1327 03e2 0122     		movs	r2, #1
 1328              		.loc 2 325 0
 1329 03e4 67EEA67A 		vmul.f32	s15, s15, s13
 1330              		.loc 2 326 0
 1331 03e8 2088     		ldrh	r0, [r4]
 1332              		.loc 2 325 0
 1333 03ea 87EE867A 		vdiv.f32	s14, s15, s12
 1334 03ee BDEEC77A 		vcvt.s32.f32	s14, s14
 1335              		.loc 2 326 0
 1336 03f2 17EE103A 		vmov	r3, s14	@ int
 1337 03f6 1944     		add	r1, r1, r3
 1338 03f8 89B2     		uxth	r1, r1
 1339 03fa FFF7FEFF 		bl	move_robot
 1340              	.LVL157:
 1341              		.loc 2 327 0
 1342 03fe 41F28830 		movw	r0, #5000
 1343 0402 FFF7FEFF 		bl	chThdSleep
 1344              	.LVL158:
 1345              		.loc 2 331 0
 1346 0406 019A     		ldr	r2, [sp, #4]
 1347 0408 3368     		ldr	r3, [r6]
 1348              		.loc 2 329 0
 1349 040a 6188     		ldrh	r1, [r4, #2]
 1350 040c A982     		strh	r1, [r5, #20]	@ movhi
 1351              	.LVL159:
 1352              		.loc 2 331 0
 1353 040e 9A42     		cmp	r2, r3
 1354              		.loc 2 328 0
 1355 0410 4FF00001 		mov	r1, #0
 1356 0414 6982     		strh	r1, [r5, #18]	@ movhi
 1357              		.loc 2 331 0
 1358 0416 5FD1     		bne	.L114
 1359 0418 0520     		movs	r0, #5
 1360              		.loc 2 335 0
 1361 041a 03B0     		add	sp, sp, #12
 1362              		.cfi_remember_state
 1363              		.cfi_def_cfa_offset 36
 1364              		@ sp needed
 1365 041c BDEC028B 		vldm	sp!, {d8}
 1366              		.cfi_restore 80
 1367              		.cfi_restore 81
 1368              		.cfi_def_cfa_offset 28
ARM GAS  /var/folders/0b/rh7d8qts4ys3rdpl8xd_0jkm0000gn/T//ccb1YIfy.s 			page 25


 1369 0420 BDE8F043 		pop	{r4, r5, r6, r7, r8, r9, lr}
 1370              		.cfi_restore 14
 1371              		.cfi_restore 9
 1372              		.cfi_restore 8
 1373              		.cfi_restore 7
 1374              		.cfi_restore 6
 1375              		.cfi_restore 5
 1376              		.cfi_restore 4
 1377              		.cfi_def_cfa_offset 0
 1378              		.loc 2 331 0
 1379 0424 FFF7FEBF 		b	light_rgb_led
 1380              	.LVL160:
 1381              	.L84:
 1382              		.cfi_restore_state
 1383              		.loc 2 244 0
 1384 0428 FFF7FEFF 		bl	light_rgb_led
 1385              	.LVL161:
 1386              	.LBB28:
 1387              	.LBB29:
 1388              		.loc 2 168 0
 1389 042c 99F80690 		ldrb	r9, [r9, #6]	@ zero_extendqisi2
 1390              	.LBE29:
 1391              	.LBE28:
 1392              		.loc 2 247 0
 1393 0430 1FED298A 		vldr.32	s16, .L119+32
 1394              	.LBB31:
 1395              	.LBB30:
 1396              		.loc 2 172 0
 1397 0434 B9FA89F9 		clz	r9, r9
 1398 0438 4FEA5919 		lsr	r9, r9, #5
 1399              	.LBE30:
 1400              	.LBE31:
 1401              		.loc 2 246 0
 1402 043c 0CE0     		b	.L88
 1403              	.L89:
 1404              		.loc 2 247 0
 1405 043e 2088     		ldrh	r0, [r4]
 1406 0440 6188     		ldrh	r1, [r4, #2]
 1407 0442 3238     		subs	r0, r0, #50
 1408 0444 80B2     		uxth	r0, r0
 1409 0446 0122     		movs	r2, #1
 1410 0448 B0EE480A 		vmov.f32	s0, s16
 1411 044c FFF7FEFF 		bl	move_robot
 1412              	.LVL162:
 1413              		.loc 2 248 0
 1414 0450 4FF4FA70 		mov	r0, #500
 1415 0454 FFF7FEFF 		bl	chThdSleep
 1416              	.LVL163:
 1417              	.L88:
 1418              		.loc 2 246 0
 1419 0458 4846     		mov	r0, r9
 1420 045a FFF7FEFF 		bl	get_line_width
 1421              	.LVL164:
 1422 045e 0028     		cmp	r0, #0
 1423 0460 EDD0     		beq	.L89
 1424              		.loc 2 250 0
 1425 0462 FFF7FEFF 		bl	get_line_position
ARM GAS  /var/folders/0b/rh7d8qts4ys3rdpl8xd_0jkm0000gn/T//ccb1YIfy.s 			page 26


 1426              	.LVL165:
 1427              		.loc 2 252 0
 1428 0466 2288     		ldrh	r2, [r4]
 1429              	.LVL166:
 1430 0468 A388     		ldrh	r3, [r4, #4]
 1431 046a 1FED396A 		vldr.32	s12, .L119+24
 1432 046e 5FED396A 		vldr.32	s13, .L119+28
 1433              		.loc 2 253 0
 1434 0472 B4F802C0 		ldrh	ip, [r4, #2]
 1435 0476 1FED3A0A 		vldr.32	s0, .L119+32
 1436              		.loc 2 252 0
 1437 047a 9B1A     		subs	r3, r3, r2
 1438 047c 07EE103A 		vmov	s14, r3	@ int
 1439 0480 A0F5A070 		sub	r0, r0, #320
 1440              	.LVL167:
 1441 0484 07EE900A 		vmov	s15, r0	@ int
 1442 0488 B8EEC77A 		vcvt.f32.s32	s14, s14
 1443 048c F8EEE77A 		vcvt.f32.s32	s15, s15
 1444 0490 27EE067A 		vmul.f32	s14, s14, s12
 1445              		.loc 2 253 0
 1446 0494 1046     		mov	r0, r2
 1447              		.loc 2 252 0
 1448 0496 67EE277A 		vmul.f32	s15, s14, s15
 1449              		.loc 2 253 0
 1450 049a 0122     		movs	r2, #1
 1451              		.loc 2 252 0
 1452 049c 87EEA67A 		vdiv.f32	s14, s15, s13
 1453              		.loc 2 255 0
 1454 04a0 A844     		add	r8, r8, r5
 1455              		.loc 2 257 0
 1456 04a2 0137     		adds	r7, r7, #1
 1457              	.LVL168:
 1458 04a4 FFB2     		uxtb	r7, r7
 1459              		.loc 2 252 0
 1460 04a6 FDEEC77A 		vcvt.s32.f32	s15, s14
 1461 04aa 17EE901A 		vmov	r1, s15	@ int
 1462              		.loc 2 253 0
 1463 04ae ACEB0101 		sub	r1, ip, r1
 1464 04b2 89B2     		uxth	r1, r1
 1465 04b4 FFF7FEFF 		bl	move_robot
 1466              	.LVL169:
 1467              		.loc 2 254 0
 1468 04b8 41F28830 		movw	r0, #5000
 1469 04bc FFF7FEFF 		bl	chThdSleep
 1470              	.LVL170:
 1471              		.loc 2 255 0
 1472 04c0 A288     		ldrh	r2, [r4, #4]
 1473              		.loc 2 256 0
 1474 04c2 6388     		ldrh	r3, [r4, #2]
 1475              		.loc 2 255 0
 1476 04c4 A8F80220 		strh	r2, [r8, #2]	@ movhi
 1477              		.loc 2 256 0
 1478 04c8 A8F80430 		strh	r3, [r8, #4]	@ movhi
 1479              		.loc 2 258 0
 1480 04cc 0520     		movs	r0, #5
 1481 04ce FFF7FEFF 		bl	light_rgb_led
 1482              	.LVL171:
ARM GAS  /var/folders/0b/rh7d8qts4ys3rdpl8xd_0jkm0000gn/T//ccb1YIfy.s 			page 27


 1483 04d2 4FEAC708 		lsl	r8, r7, #3
 1484 04d6 0AE6     		b	.L85
 1485              	.LVL172:
 1486              	.L114:
 1487              		.loc 2 335 0
 1488 04d8 FFF7FEFF 		bl	__stack_chk_fail
 1489              	.LVL173:
 1490              		.cfi_endproc
 1491              	.LFE264:
 1492              		.size	attribute_goal, .-attribute_goal
 1493              		.section	.text.determine_world_dimension,"ax",%progbits
 1494              		.align	1
 1495              		.p2align 4,,15
 1496              		.global	determine_world_dimension
 1497              		.syntax unified
 1498              		.thumb
 1499              		.thumb_func
 1500              		.fpu fpv4-sp-d16
 1501              		.type	determine_world_dimension, %function
 1502              	determine_world_dimension:
 1503              	.LFB265:
 1504              		.loc 2 337 0
 1505              		.cfi_startproc
 1506              		@ args = 0, pretend = 0, frame = 8
 1507              		@ frame_needed = 0, uses_anonymous_args = 0
 1508              	.LVL174:
 1509 0000 70B5     		push	{r4, r5, r6, lr}
 1510              		.cfi_def_cfa_offset 16
 1511              		.cfi_offset 4, -16
 1512              		.cfi_offset 5, -12
 1513              		.cfi_offset 6, -8
 1514              		.cfi_offset 14, -4
 1515 0002 314E     		ldr	r6, .L126
 1516              		.loc 2 339 0
 1517 0004 314C     		ldr	r4, .L126+4
 1518              		.loc 2 337 0
 1519 0006 3368     		ldr	r3, [r6]
 1520 0008 82B0     		sub	sp, sp, #8
 1521              		.cfi_def_cfa_offset 24
 1522              		.loc 2 337 0
 1523 000a 0546     		mov	r5, r0
 1524 000c 0193     		str	r3, [sp, #4]
 1525              		.loc 2 338 0
 1526 000e FFF7FEFF 		bl	adjust_orientation
 1527              	.LVL175:
 1528              		.loc 2 339 0
 1529 0012 2846     		mov	r0, r5
 1530 0014 FFF7FEFF 		bl	retrieve_TOF_measure
 1531              	.LVL176:
 1532              		.loc 2 341 0
 1533 0018 DFED2D0A 		vldr.32	s1, .L126+8
 1534              		.loc 2 342 0
 1535 001c 9FED2D0A 		vldr.32	s0, .L126+12
 1536              		.loc 2 341 0
 1537 0020 C4ED020A 		vstr.32	s1, [r4, #8]
 1538              		.loc 2 339 0
 1539 0024 2330     		adds	r0, r0, #35
ARM GAS  /var/folders/0b/rh7d8qts4ys3rdpl8xd_0jkm0000gn/T//ccb1YIfy.s 			page 28


 1540 0026 80B2     		uxth	r0, r0
 1541 0028 A080     		strh	r0, [r4, #4]	@ movhi
 1542              		.loc 2 340 0
 1543 002a 2080     		strh	r0, [r4]	@ movhi
 1544              		.loc 2 342 0
 1545 002c FFF7FEFF 		bl	rotate_angle
 1546              	.LVL177:
 1547              		.loc 2 343 0
 1548 0030 2846     		mov	r0, r5
 1549              		.loc 2 342 0
 1550 0032 84ED020A 		vstr.32	s0, [r4, #8]
 1551              		.loc 2 343 0
 1552 0036 FFF7FEFF 		bl	retrieve_TOF_measure
 1553              	.LVL178:
 1554 003a 2330     		adds	r0, r0, #35
 1555 003c 80B2     		uxth	r0, r0
 1556              		.loc 2 345 0
 1557 003e D4ED020A 		vldr.32	s1, [r4, #8]
 1558 0042 9FED240A 		vldr.32	s0, .L126+12
 1559              		.loc 2 343 0
 1560 0046 E080     		strh	r0, [r4, #6]	@ movhi
 1561              		.loc 2 344 0
 1562 0048 6080     		strh	r0, [r4, #2]	@ movhi
 1563              		.loc 2 345 0
 1564 004a FFF7FEFF 		bl	rotate_angle
 1565              	.LVL179:
 1566              		.loc 2 346 0
 1567 004e 2846     		mov	r0, r5
 1568              		.loc 2 345 0
 1569 0050 84ED020A 		vstr.32	s0, [r4, #8]
 1570              		.loc 2 346 0
 1571 0054 FFF7FEFF 		bl	retrieve_TOF_measure
 1572              	.LVL180:
 1573 0058 A388     		ldrh	r3, [r4, #4]
 1574              		.loc 2 347 0
 1575 005a D4ED020A 		vldr.32	s1, [r4, #8]
 1576 005e 9FED1D0A 		vldr.32	s0, .L126+12
 1577              		.loc 2 346 0
 1578 0062 2333     		adds	r3, r3, #35
 1579 0064 1844     		add	r0, r0, r3
 1580 0066 A080     		strh	r0, [r4, #4]	@ movhi
 1581              		.loc 2 347 0
 1582 0068 FFF7FEFF 		bl	rotate_angle
 1583              	.LVL181:
 1584              		.loc 2 348 0
 1585 006c 2846     		mov	r0, r5
 1586              		.loc 2 347 0
 1587 006e 84ED020A 		vstr.32	s0, [r4, #8]
 1588              		.loc 2 348 0
 1589 0072 FFF7FEFF 		bl	retrieve_TOF_measure
 1590              	.LVL182:
 1591 0076 E388     		ldrh	r3, [r4, #6]
 1592              		.loc 2 349 0
 1593 0078 D4ED020A 		vldr.32	s1, [r4, #8]
 1594 007c 9FED150A 		vldr.32	s0, .L126+12
 1595              		.loc 2 348 0
 1596 0080 2333     		adds	r3, r3, #35
ARM GAS  /var/folders/0b/rh7d8qts4ys3rdpl8xd_0jkm0000gn/T//ccb1YIfy.s 			page 29


 1597 0082 1844     		add	r0, r0, r3
 1598 0084 E080     		strh	r0, [r4, #6]	@ movhi
 1599              		.loc 2 349 0
 1600 0086 FFF7FEFF 		bl	rotate_angle
 1601              	.LVL183:
 1602              		.loc 2 350 0
 1603 008a 6188     		ldrh	r1, [r4, #2]
 1604 008c 2088     		ldrh	r0, [r4]
 1605              		.loc 2 349 0
 1606 008e 84ED020A 		vstr.32	s0, [r4, #8]
 1607              		.loc 2 350 0
 1608 0092 0022     		movs	r2, #0
 1609 0094 FFF7FEFF 		bl	move_robot
 1610              	.LVL184:
 1611              		.loc 2 351 0
 1612 0098 E188     		ldrh	r1, [r4, #6]
 1613 009a A088     		ldrh	r0, [r4, #4]
 1614 009c 9FED0E0A 		vldr.32	s0, .L126+16
 1615 00a0 0022     		movs	r2, #0
 1616 00a2 4908     		lsrs	r1, r1, #1
 1617 00a4 4008     		lsrs	r0, r0, #1
 1618 00a6 FFF7FEFF 		bl	move_robot
 1619              	.LVL185:
 1620              		.loc 2 352 0
 1621 00aa 019A     		ldr	r2, [sp, #4]
 1622 00ac 3368     		ldr	r3, [r6]
 1623 00ae 9A42     		cmp	r2, r3
 1624 00b0 08D1     		bne	.L125
 1625 00b2 E388     		ldrh	r3, [r4, #6]
 1626 00b4 A288     		ldrh	r2, [r4, #4]
 1627 00b6 0949     		ldr	r1, .L126+20
 1628 00b8 0948     		ldr	r0, .L126+24
 1629              		.loc 2 355 0
 1630 00ba 02B0     		add	sp, sp, #8
 1631              		.cfi_remember_state
 1632              		.cfi_def_cfa_offset 16
 1633              		@ sp needed
 1634 00bc BDE87040 		pop	{r4, r5, r6, lr}
 1635              		.cfi_restore 14
 1636              		.cfi_restore 6
 1637              		.cfi_restore 5
 1638              		.cfi_restore 4
 1639              		.cfi_def_cfa_offset 0
 1640              		.loc 2 352 0
 1641 00c0 FFF7FEBF 		b	chprintf.constprop.0
 1642              	.LVL186:
 1643              	.L125:
 1644              		.cfi_restore_state
 1645 00c4 FFF7FEFF 		bl	__stack_chk_fail
 1646              	.LVL187:
 1647              	.L127:
 1648              		.align	2
 1649              	.L126:
 1650 00c8 00000000 		.word	__stack_chk_guard
 1651 00cc 00000000 		.word	.LANCHOR0
 1652 00d0 00003443 		.word	1127481344
 1653 00d4 0000B442 		.word	1119092736
ARM GAS  /var/folders/0b/rh7d8qts4ys3rdpl8xd_0jkm0000gn/T//ccb1YIfy.s 			page 30


 1654 00d8 00000000 		.word	0
 1655 00dc 00000000 		.word	.LC1
 1656 00e0 00000000 		.word	SD3
 1657              		.cfi_endproc
 1658              	.LFE265:
 1659              		.size	determine_world_dimension, .-determine_world_dimension
 1660              		.section	.text.init_identify_world,"ax",%progbits
 1661              		.align	1
 1662              		.p2align 4,,15
 1663              		.global	init_identify_world
 1664              		.syntax unified
 1665              		.thumb
 1666              		.thumb_func
 1667              		.fpu fpv4-sp-d16
 1668              		.type	init_identify_world, %function
 1669              	init_identify_world:
 1670              	.LFB266:
 1671              		.loc 2 365 0
 1672              		.cfi_startproc
 1673              		@ args = 0, pretend = 0, frame = 8
 1674              		@ frame_needed = 0, uses_anonymous_args = 0
 1675 0000 2DE9F043 		push	{r4, r5, r6, r7, r8, r9, lr}
 1676              		.cfi_def_cfa_offset 28
 1677              		.cfi_offset 4, -28
 1678              		.cfi_offset 5, -24
 1679              		.cfi_offset 6, -20
 1680              		.cfi_offset 7, -16
 1681              		.cfi_offset 8, -12
 1682              		.cfi_offset 9, -8
 1683              		.cfi_offset 14, -4
 1684 0004 2B4F     		ldr	r7, .L142
 1685              		.loc 2 367 0
 1686 0006 2C4D     		ldr	r5, .L142+4
 1687              		.loc 2 365 0
 1688 0008 3B68     		ldr	r3, [r7]
 1689 000a 2C4C     		ldr	r4, .L142+8
 1690              	.LBB32:
 1691              		.loc 2 392 0
 1692 000c DFF8C490 		ldr	r9, .L142+32
 1693 0010 2B4E     		ldr	r6, .L142+12
 1694              		.loc 2 389 0
 1695 0012 DFF8C480 		ldr	r8, .L142+36
 1696              	.LBE32:
 1697              		.loc 2 365 0
 1698 0016 83B0     		sub	sp, sp, #12
 1699              		.cfi_def_cfa_offset 40
 1700              		.loc 2 366 0
 1701 0018 41F28830 		movw	r0, #5000
 1702              		.loc 2 365 0
 1703 001c 0193     		str	r3, [sp, #4]
 1704              		.loc 2 366 0
 1705 001e FFF7FEFF 		bl	chThdSleep
 1706              	.LVL188:
 1707              		.loc 2 367 0
 1708 0022 0023     		movs	r3, #0
 1709              		.loc 2 368 0
 1710 0024 0320     		movs	r0, #3
ARM GAS  /var/folders/0b/rh7d8qts4ys3rdpl8xd_0jkm0000gn/T//ccb1YIfy.s 			page 31


 1711              		.loc 2 367 0
 1712 0026 AB60     		str	r3, [r5, #8]	@ float
 1713              		.loc 2 368 0
 1714 0028 FFF7FEFF 		bl	determine_world_dimension
 1715              	.LVL189:
 1716              		.loc 2 369 0
 1717 002c 95ED020A 		vldr.32	s0, [r5, #8]
 1718 0030 6988     		ldrh	r1, [r5, #2]
 1719 0032 2888     		ldrh	r0, [r5]
 1720 0034 0022     		movs	r2, #0
 1721 0036 FFF7FEFF 		bl	move_robot
 1722              	.LVL190:
 1723              		.loc 2 370 0
 1724 003a 1420     		movs	r0, #20
 1725 003c FFF7FEFF 		bl	determine_world_dimension
 1726              	.LVL191:
 1727              		.loc 2 372 0
 1728 0040 4FF4FA60 		mov	r0, #2000
 1729 0044 FFF7FEFF 		bl	chThdSleep
 1730              	.LVL192:
 1731              		.loc 2 373 0
 1732 0048 FFF7FEFF 		bl	attribute_goal
 1733              	.LVL193:
 1734              	.LBB33:
 1735              		.loc 2 374 0
 1736 004c 0025     		movs	r5, #0
 1737              	.LVL194:
 1738              	.L136:
 1739              		.loc 2 375 0
 1740 004e A379     		ldrb	r3, [r4, #6]	@ zero_extendqisi2
 1741 0050 042B     		cmp	r3, #4
 1742 0052 09D8     		bhi	.L129
 1743 0054 DFE803F0 		tbb	[pc, r3]
 1744              	.L131:
 1745 0058 26       		.byte	(.L130-.L131)/2
 1746 0059 29       		.byte	(.L132-.L131)/2
 1747 005a 1A       		.byte	(.L133-.L131)/2
 1748 005b 14       		.byte	(.L134-.L131)/2
 1749 005c 03       		.byte	(.L135-.L131)/2
 1750 005d 00       		.p2align 1
 1751              	.L135:
 1752              		.loc 2 392 0
 1753 005e 2A46     		mov	r2, r5
 1754 0060 4946     		mov	r1, r9
 1755 0062 3046     		mov	r0, r6
 1756 0064 FFF7FEFF 		bl	chprintf.constprop.0
 1757              	.LVL195:
 1758              	.L129:
 1759              		.loc 2 374 0 discriminator 2
 1760 0068 0135     		adds	r5, r5, #1
 1761              	.LVL196:
 1762 006a 032D     		cmp	r5, #3
 1763 006c 04F10804 		add	r4, r4, #8
 1764 0070 EDD1     		bne	.L136
 1765              	.LBE33:
 1766              		.loc 2 398 0
 1767 0072 019A     		ldr	r2, [sp, #4]
ARM GAS  /var/folders/0b/rh7d8qts4ys3rdpl8xd_0jkm0000gn/T//ccb1YIfy.s 			page 32


 1768 0074 3B68     		ldr	r3, [r7]
 1769 0076 9A42     		cmp	r2, r3
 1770 0078 1AD1     		bne	.L141
 1771 007a 03B0     		add	sp, sp, #12
 1772              		.cfi_remember_state
 1773              		.cfi_def_cfa_offset 28
 1774              		@ sp needed
 1775 007c BDE8F083 		pop	{r4, r5, r6, r7, r8, r9, pc}
 1776              	.LVL197:
 1777              	.L134:
 1778              		.cfi_restore_state
 1779              	.LBB34:
 1780              		.loc 2 389 0
 1781 0080 2A46     		mov	r2, r5
 1782 0082 4146     		mov	r1, r8
 1783 0084 3046     		mov	r0, r6
 1784 0086 FFF7FEFF 		bl	chprintf.constprop.0
 1785              	.LVL198:
 1786              		.loc 2 390 0
 1787 008a EDE7     		b	.L129
 1788              	.L133:
 1789              		.loc 2 381 0
 1790 008c 0D49     		ldr	r1, .L142+16
 1791 008e 2A46     		mov	r2, r5
 1792              	.LVL199:
 1793              	.L140:
 1794 0090 3046     		mov	r0, r6
 1795 0092 FFF7FEFF 		bl	chprintf.constprop.0
 1796              	.LVL200:
 1797              		.loc 2 382 0
 1798 0096 A388     		ldrh	r3, [r4, #4]
 1799 0098 6288     		ldrh	r2, [r4, #2]
 1800 009a 0B49     		ldr	r1, .L142+20
 1801 009c 3046     		mov	r0, r6
 1802 009e FFF7FEFF 		bl	chprintf.constprop.0
 1803              	.LVL201:
 1804              		.loc 2 383 0
 1805 00a2 E1E7     		b	.L129
 1806              	.L130:
 1807              		.loc 2 377 0
 1808 00a4 2A46     		mov	r2, r5
 1809 00a6 0949     		ldr	r1, .L142+24
 1810 00a8 F2E7     		b	.L140
 1811              	.L132:
 1812              		.loc 2 385 0
 1813 00aa 2A46     		mov	r2, r5
 1814 00ac 0849     		ldr	r1, .L142+28
 1815 00ae EFE7     		b	.L140
 1816              	.L141:
 1817              	.LBE34:
 1818              		.loc 2 398 0
 1819 00b0 FFF7FEFF 		bl	__stack_chk_fail
 1820              	.LVL202:
 1821              	.L143:
 1822              		.align	2
 1823              	.L142:
 1824 00b4 00000000 		.word	__stack_chk_guard
ARM GAS  /var/folders/0b/rh7d8qts4ys3rdpl8xd_0jkm0000gn/T//ccb1YIfy.s 			page 33


 1825 00b8 00000000 		.word	.LANCHOR0
 1826 00bc 00000000 		.word	.LANCHOR1
 1827 00c0 00000000 		.word	SD3
 1828 00c4 3C000000 		.word	.LC4
 1829 00c8 1C000000 		.word	.LC3
 1830 00cc 00000000 		.word	.LC2
 1831 00d0 58000000 		.word	.LC5
 1832 00d4 90000000 		.word	.LC7
 1833 00d8 74000000 		.word	.LC6
 1834              		.cfi_endproc
 1835              	.LFE266:
 1836              		.size	init_identify_world, .-init_identify_world
 1837              		.section	.bss.goals,"aw",%nobits
 1838              		.align	2
 1839              		.set	.LANCHOR1,. + 0
 1840              		.type	goals, %object
 1841              		.size	goals, 24
 1842              	goals:
 1843 0000 00000000 		.space	24
 1843      00000000 
 1843      00000000 
 1843      00000000 
 1843      00000000 
 1844              		.section	.bss.robot,"aw",%nobits
 1845              		.align	2
 1846              		.set	.LANCHOR0,. + 0
 1847              		.type	robot, %object
 1848              		.size	robot, 12
 1849              	robot:
 1850 0000 00000000 		.space	12
 1850      00000000 
 1850      00000000 
 1851              		.section	.rodata.determine_world_dimension.str1.4,"aMS",%progbits,1
 1852              		.align	2
 1853              	.LC1:
 1854 0000 64696D65 		.ascii	"dimensioni x: %d   e y : %d\011\015\012\012\000"
 1854      6E73696F 
 1854      6E692078 
 1854      3A202564 
 1854      20202065 
 1855              		.section	.rodata.init_identify_world.str1.4,"aMS",%progbits,1
 1856              		.align	2
 1857              	.LC2:
 1858 0000 506F7274 		.ascii	"Porta %d colore: ROSSO\011\015\012\012\000"
 1858      61202564 
 1858      20636F6C 
 1858      6F72653A 
 1858      20524F53 
 1859 001b 00       		.space	1
 1860              	.LC3:
 1861 001c 706F7369 		.ascii	"posizione porta: x:%d\011\011y:%d\011\015\012\012\000"
 1861      7A696F6E 
 1861      6520706F 
 1861      7274613A 
 1861      20783A25 
 1862              	.LC4:
 1863 003c 506F7274 		.ascii	"Porta %d colore: VERDE\011\015\012\012\000"
ARM GAS  /var/folders/0b/rh7d8qts4ys3rdpl8xd_0jkm0000gn/T//ccb1YIfy.s 			page 34


 1863      61202564 
 1863      20636F6C 
 1863      6F72653A 
 1863      20564552 
 1864 0057 00       		.space	1
 1865              	.LC5:
 1866 0058 506F7274 		.ascii	"Porta %d colore: BLU\011\015\012\012\000"
 1866      61202564 
 1866      20636F6C 
 1866      6F72653A 
 1866      20424C55 
 1867 0071 000000   		.space	3
 1868              	.LC6:
 1869 0074 506F7274 		.ascii	"Porta %d colore: BIANCO\011\015\012\012\000"
 1869      61202564 
 1869      20636F6C 
 1869      6F72653A 
 1869      20424941 
 1870              	.LC7:
 1871 0090 506F7274 		.ascii	"Porta %d colore: NON ATTRIBUITO\011\015\012\012\000"
 1871      61202564 
 1871      20636F6C 
 1871      6F72653A 
 1871      204E4F4E 
 1872              		.section	.rodata.move_robot.str1.4,"aMS",%progbits,1
 1873              		.align	2
 1874              	.LC0:
 1875 0000 616E676C 		.ascii	"angle: %f , deltax: %d,  deltay: %d\011\015\012\012"
 1875      653A2025 
 1875      66202C20 
 1875      64656C74 
 1875      61783A20 
 1876 0027 00       		.ascii	"\000"
 1877              		.text
 1878              	.Letext0:
 1879              		.file 3 "/Applications/Eclipse_e-puck2.app/Contents/Eclipse_e-puck2/Tools/gcc-arm-none-eabi-7-2017
 1880              		.file 4 "/Applications/Eclipse_e-puck2.app/Contents/Eclipse_e-puck2/Tools/gcc-arm-none-eabi-7-2017
 1881              		.file 5 "/Applications/Eclipse_e-puck2.app/Contents/Eclipse_e-puck2/Tools/gcc-arm-none-eabi-7-2017
 1882              		.file 6 "../../lib/e-puck2_main-processor/ChibiOS//os/rt/ports/ARMCMx/compilers/GCC/chtypes.h"
 1883              		.file 7 "../../lib/e-puck2_main-processor/ChibiOS//os/rt/include/chsystypes.h"
 1884              		.file 8 "../../lib/e-puck2_main-processor/ChibiOS//os/rt/include/chschd.h"
 1885              		.file 9 "../../lib/e-puck2_main-processor/ChibiOS//os/ext/CMSIS/include/core_cm4.h"
 1886              		.file 10 "../../lib/e-puck2_main-processor/ChibiOS//os/ext/CMSIS/ST/system_stm32f4xx.h"
 1887              		.file 11 "../../lib/e-puck2_main-processor/ChibiOS//os/ext/CMSIS/ST/stm32f407xx.h"
 1888              		.file 12 "../../lib/e-puck2_main-processor/ChibiOS//os/rt/ports/ARMCMx/chcore.h"
 1889              		.file 13 "../../lib/e-puck2_main-processor/ChibiOS//os/rt/ports/ARMCMx/chcore_v7m.h"
 1890              		.file 14 "../../lib/e-puck2_main-processor/ChibiOS//os/rt/include/chdebug.h"
 1891              		.file 15 "../../lib/e-puck2_main-processor/ChibiOS//os/rt/include/chtm.h"
 1892              		.file 16 "../../lib/e-puck2_main-processor/ChibiOS//os/rt/include/chstats.h"
 1893              		.file 17 "../../lib/e-puck2_main-processor/ChibiOS//os/rt/include/chsem.h"
 1894              		.file 18 "../../lib/e-puck2_main-processor/ChibiOS//os/rt/include/chmtx.h"
 1895              		.file 19 "../../lib/e-puck2_main-processor/ChibiOS//os/rt/include/chregistry.h"
 1896              		.file 20 "../../lib/e-puck2_main-processor/ChibiOS//os/rt/include/chevents.h"
 1897              		.file 21 "../../lib/e-puck2_main-processor/ChibiOS//os/rt/include/chqueues.h"
 1898              		.file 22 "../../lib/e-puck2_main-processor/ChibiOS//os/rt/include/chstreams.h"
 1899              		.file 23 "../../lib/e-puck2_main-processor/ChibiOS//os/hal/ports/STM32/STM32F4xx/stm32_dma.h"
 1900              		.file 24 "../../lib/e-puck2_main-processor/ChibiOS//os/hal/include/hal_ioblock.h"
ARM GAS  /var/folders/0b/rh7d8qts4ys3rdpl8xd_0jkm0000gn/T//ccb1YIfy.s 			page 35


 1901              		.file 25 "../../lib/e-puck2_main-processor/ChibiOS//os/hal/ports/STM32/LLD/GPIOv2/pal_lld.h"
 1902              		.file 26 "../../lib/e-puck2_main-processor/ChibiOS//os/hal/include/adc.h"
 1903              		.file 27 "../../lib/e-puck2_main-processor/ChibiOS//os/hal/ports/STM32/STM32F4xx/adc_lld.h"
 1904              		.file 28 "../../lib/e-puck2_main-processor/ChibiOS//os/hal/include/can.h"
 1905              		.file 29 "../../lib/e-puck2_main-processor/ChibiOS//os/hal/ports/STM32/LLD/can_lld.h"
 1906              		.file 30 "../../lib/e-puck2_main-processor/ChibiOS//os/hal/include/dac.h"
 1907              		.file 31 "../../lib/e-puck2_main-processor/ChibiOS//os/hal/ports/STM32/LLD/DACv1/dac_lld.h"
 1908              		.file 32 "../../lib/e-puck2_main-processor/ChibiOS//os/hal/include/ext.h"
 1909              		.file 33 "../../lib/e-puck2_main-processor/ChibiOS//os/hal/ports/STM32/LLD/ext_lld.h"
 1910              		.file 34 "../../lib/e-puck2_main-processor/ChibiOS//os/hal/include/gpt.h"
 1911              		.file 35 "../../lib/e-puck2_main-processor/ChibiOS//os/hal/ports/STM32/LLD/TIMv1/gpt_lld.h"
 1912              		.file 36 "../../lib/e-puck2_main-processor/ChibiOS//os/hal/ports/STM32/LLD/TIMv1/stm32_tim.h"
 1913              		.file 37 "../../lib/e-puck2_main-processor/ChibiOS//os/hal/include/i2c.h"
 1914              		.file 38 "../../lib/e-puck2_main-processor/ChibiOS//os/hal/ports/STM32/LLD/I2Cv1/i2c_lld.h"
 1915              		.file 39 "../../lib/e-puck2_main-processor/ChibiOS//os/hal/include/i2s.h"
 1916              		.file 40 "../../lib/e-puck2_main-processor/ChibiOS//os/hal/ports/STM32/LLD/SPIv1/i2s_lld.h"
 1917              		.file 41 "../../lib/e-puck2_main-processor/ChibiOS//os/hal/include/pwm.h"
 1918              		.file 42 "../../lib/e-puck2_main-processor/ChibiOS//os/hal/ports/STM32/LLD/TIMv1/pwm_lld.h"
 1919              		.file 43 "../../lib/e-puck2_main-processor/ChibiOS//os/hal/include/serial.h"
 1920              		.file 44 "../../lib/e-puck2_main-processor/ChibiOS//os/hal/ports/STM32/LLD/USARTv1/serial_lld.h"
 1921              		.file 45 "../../lib/e-puck2_main-processor/ChibiOS//os/hal/include/sdc.h"
 1922              		.file 46 "../../lib/e-puck2_main-processor/ChibiOS//os/hal/ports/STM32/LLD/sdc_lld.h"
 1923              		.file 47 "../../lib/e-puck2_main-processor/ChibiOS//os/hal/include/spi.h"
 1924              		.file 48 "../../lib/e-puck2_main-processor/ChibiOS//os/hal/ports/STM32/LLD/SPIv1/spi_lld.h"
 1925              		.file 49 "../../lib/e-puck2_main-processor/ChibiOS//os/hal/include/usb.h"
 1926              		.file 50 "../../lib/e-puck2_main-processor/ChibiOS//os/hal/ports/STM32/LLD/OTGv1/usb_lld.h"
 1927              		.file 51 "../../lib/e-puck2_main-processor/ChibiOS//os/hal/ports/STM32/LLD/OTGv1/stm32_otg.h"
 1928              		.file 52 "../../lib/e-puck2_main-processor/ChibiOS//os/hal/include/serial_usb.h"
 1929              		.file 53 "/Applications/Eclipse_e-puck2.app/Contents/Eclipse_e-puck2/Tools/gcc-arm-none-eabi-7-201
 1930              		.file 54 "<built-in>"
 1931              		.file 55 "/Applications/Eclipse_e-puck2.app/Contents/Eclipse_e-puck2/Tools/gcc-arm-none-eabi-7-201
 1932              		.file 56 "/Applications/Eclipse_e-puck2.app/Contents/Eclipse_e-puck2/Tools/gcc-arm-none-eabi-7-201
 1933              		.file 57 "/Applications/Eclipse_e-puck2.app/Contents/Eclipse_e-puck2/Tools/gcc-arm-none-eabi-7-201
 1934              		.file 58 "/Applications/Eclipse_e-puck2.app/Contents/Eclipse_e-puck2/Tools/gcc-arm-none-eabi-7-201
 1935              		.file 59 "/Applications/Eclipse_e-puck2.app/Contents/Eclipse_e-puck2/Tools/gcc-arm-none-eabi-7-201
 1936              		.file 60 "../../lib/e-puck2_main-processor/src/usbcfg.h"
 1937              		.file 61 "./robotmvmts.h"
 1938              		.file 62 "../../lib/e-puck2_main-processor/ChibiOS_ext/os/hal/include/../ports/STM32/STM32F4xx/dcm
 1939              		.file 63 "/Applications/Eclipse_e-puck2.app/Contents/Eclipse_e-puck2/Tools/gcc-arm-none-eabi-7-201
 1940              		.file 64 "../../lib/e-puck2_main-processor/src/msgbus/messagebus.h"
 1941              		.file 65 "../../lib/e-puck2_main-processor/src/parameter/parameter.h"
 1942              		.file 66 "./main.h"
 1943              		.file 67 "../../lib/e-puck2_main-processor/ChibiOS//os/rt/include/chthreads.h"
 1944              		.file 68 "../../lib/e-puck2_main-processor/src/motors.h"
 1945              		.file 69 "process_image.h"
 1946              		.file 70 "../../lib/e-puck2_main-processor/src/leds.h"
 1947              		.file 71 "../../lib/e-puck2_main-processor/src/sensors/VL53L0X/VL53L0X.h"